(lp0
(lp1
I100
aF0.05
aI1
aI2
aI1
aI0
acnumpy.core.multiarray
scalar
p2
(cnumpy
dtype
p3
(S'f8'
p4
I0
I1
tp5
Rp6
(I3
S'<'
p7
NNNI-1
I-1
I0
tp8
bS'{\x14\xaeG\xe1z\x19@'
p9
tp10
Rp11
aF0.8228
a(lp12
I200
aI400
aI600
aI800
aI1000
aI1200
aa(lp13
F0.995
aF0.985
aF0.92
aF0.77375
aF0.643
aF0.5308333333333334
aa(lp14
I3
aI40
aI212
aI598
aI1172
aI1886
aaa(lp15
I100
aF0.05
aI1
aI3
aI1
aI0
ag2
(g6
S'\n\xd7\xa3p=\n\x07@'
p16
tp17
Rp18
aF0.6846
a(lp19
I200
aI400
aI600
aI800
aa(lp20
F0.955
aF0.7125
aF0.495
aF0.36
aa(lp21
I58
aI389
aI968
aI1718
aaa(lp22
I100
aF0.05
aI2
aI2
aI1
aI0
ag2
(g6
S'\xe1z\x14\xaeG\xe1&@'
p23
tp24
Rp25
aF0.7396
a(lp26
I200
aI400
aI600
aI800
aI1000
aI1200
aI1400
aI1600
aa(lp27
F1.0
aF1.0
aF0.9966666666666667
aF0.98125
aF0.951
aF0.8975
aF0.8185714285714286
aF0.715
aa(lp28
I0
aI0
aI1
aI7
aI36
aI117
aI272
aI604
aaa(lp29
I100
aF0.05
aI2
aI3
aI1
aI0
ag2
(g6
S'?\n\xd7\xa3p=\x1c@'
p30
tp31
Rp32
aF0.7575
a(lp33
I200
aI400
aI600
aI800
aI1000
aI1200
aI1400
aa(lp34
F1.0
aF0.995
aF0.9516666666666667
aF0.83875
aF0.701
aF0.5925
aF0.5042857142857143
aa(lp35
I0
aI6
aI62
aI267
aI667
aI1242
aI1950
aaa(lp36
I100
aF0.05
aI3
aI2
aI1
aI0
ag2
(g6
S'\x9a\x99\x99\x99\x99\x19*@'
p37
tp38
Rp39
aF0.5958666666666667
a(lp40
I200
aI400
aI600
aI800
aI1000
aI1200
aI1400
aI1600
aI1800
aa(lp41
F1.0
aF1.0
aF0.995
aF0.9825
aF0.96
aF0.9325
aF0.885
aF0.81625
aF0.725
aa(lp42
I0
aI0
aI0
aI0
aI0
aI4
aI11
aI25
aI62
aaa(lp43
I100
aF0.05
aI3
aI3
aI1
aI0
ag2
(g6
S'\xc3\xf5(\\\x8f\xc2(@'
p44
tp45
Rp46
aF0.8251
a(lp47
I200
aI400
aI600
aI800
aI1000
aI1200
aI1400
aI1600
aI1800
aI2000
aI2200
aa(lp48
F1.0
aF1.0
aF1.0
aF0.9975
aF0.961
aF0.9008333333333334
aF0.8307142857142857
aF0.751875
aF0.6794444444444444
aF0.617
aF0.5627272727272727
aa(lp49
I0
aI0
aI0
aI5
aI61
aI190
aI423
aI827
aI1354
aI2006
aI2749
aaa(lp50
I100
aF0.05
aI4
aI2
aI1
aI0
ag2
(g6
S'\\\x8f\xc2\xf5(\xdc)@'
p51
tp52
Rp53
aF0.49965
a(lp54
I200
aI400
aI600
aI800
aI1000
aI1200
aI1400
aI1600
aI1800
aI2000
aa(lp55
F1.0
aF1.0
aF0.9933333333333333
aF0.99125
aF0.967
aF0.9258333333333333
aF0.8814285714285715
aF0.823125
aF0.7494444444444445
aF0.6465
aa(lp56
I0
aI0
aI0
aI0
aI0
aI0
aI0
aI0
aI3
aI7
aaa(lp57
I100
aF0.05
aI4
aI3
aI1
aI0
ag2
(g6
S'fffff\xe61@'
p58
tp59
Rp60
aF0.838425
a(lp61
I200
aI400
aI600
aI800
aI1000
aI1200
aI1400
aI1600
aI1800
aI2000
aI2200
aI2400
aI2600
aI2800
aa(lp62
F1.0
aF1.0
aF1.0
aF1.0
aF1.0
aF0.9958333333333333
aF0.9771428571428571
aF0.95125
aF0.9138888888888889
aF0.852
aF0.7968181818181819
aF0.7395833333333334
aF0.6865384615384615
aF0.6392857142857142
aa(lp63
I0
aI0
aI0
aI0
aI0
aI11
aI41
aI115
aI273
aI565
aI973
aI1515
aI2124
aI2821
aaa(lp64
I100
aF0.05
aI5
aI2
aI1
aI0
ag2
(g6
S'\x8f\xc2\xf5(\\\x0f*@'
p65
tp66
Rp67
aF0.4
a(lp68
I200
aI400
aI600
aI800
aI1000
aI1200
aI1400
aI1600
aI1800
aI2000
aa(lp69
F0.995
aF0.9975
aF0.9916666666666667
aF0.98125
aF0.965
aF0.9408333333333333
aF0.8842857142857142
aF0.819375
aF0.7377777777777778
aF0.6515
aa(lp70
I0
aI0
aI0
aI0
aI0
aI0
aI0
aI0
aI0
aI0
aaa(lp71
I100
aF0.05
aI5
aI3
aI1
aI0
ag2
(g6
S'\x00\x00\x00\x00\x00\xc07@'
p72
tp73
Rp74
aF0.86508
a(lp75
I200
aI400
aI600
aI800
aI1000
aI1200
aI1400
aI1600
aI1800
aI2000
aI2200
aI2400
aI2600
aI2800
aI3000
aI3200
aI3400
aI3600
aa(lp76
F1.0
aF1.0
aF1.0
aF1.0
aF1.0
aF0.9991666666666666
aF0.9992857142857143
aF0.99375
aF0.9894444444444445
aF0.976
aF0.9522727272727273
aF0.9145833333333333
aF0.8780769230769231
aF0.8282142857142857
aF0.783
aF0.7378125
aF0.6976470588235294
aF0.6597222222222222
aa(lp77
I0
aI0
aI0
aI0
aI0
aI1
aI3
aI12
aI25
aI79
aI186
aI396
aI684
aI1089
aI1579
aI2178
aI2827
aI3582
aaa(lp78
I100
aF0.05
aI6
aI2
aI1
aI0
ag2
(g6
S'ffffff*@'
p79
tp80
Rp81
aF0.3333333333333333
a(lp82
I200
aI400
aI600
aI800
aI1000
aI1200
aI1400
aI1600
aI1800
aI2000
aa(lp83
F1.0
aF0.9975
aF0.9966666666666667
aF0.995
aF0.983
aF0.9466666666666667
aF0.9142857142857143
aF0.84625
aF0.7594444444444445
aF0.66
aa(lp84
I0
aI0
aI0
aI0
aI0
aI0
aI0
aI0
aI0
aI0
aaa(lp85
I100
aF0.05
aI6
aI3
aI1
aI0
ag2
(g6
S'\x14\xaeG\xe1z\x14>@'
p86
tp87
Rp88
aF0.87725
a(lp89
I200
aI400
aI600
aI800
aI1000
aI1200
aI1400
aI1600
aI1800
aI2000
aI2200
aI2400
aI2600
aI2800
aI3000
aI3200
aI3400
aI3600
aI3800
aI4000
aI4200
aa(lp90
F1.0
aF1.0
aF1.0
aF1.0
aF1.0
aF1.0
aF1.0
aF1.0
aF0.9994444444444445
aF0.9975
aF0.9940909090909091
aF0.9866666666666667
aF0.9753846153846154
aF0.9546428571428571
aF0.924
aF0.8928125
aF0.8579411764705882
aF0.8202777777777778
aF0.785
aF0.75
aF0.7161904761904762
aa(lp91
I0
aI0
aI0
aI0
aI0
aI0
aI0
aI0
aI3
aI10
aI29
aI58
aI120
aI250
aI464
aI749
aI1109
aI1579
aI2121
aI2752
aI3455
aaa(lp92
I100
aF0.1
aI1
aI2
aI1
aI0
ag2
(g6
S'233333\r@'
p93
tp94
Rp95
aF0.918
a(lp96
I200
aI400
aI600
aa(lp97
F1.0
aF0.91
aF0.6083333333333333
aa(lp98
I1
aI220
aI1410
aaa(lp99
I100
aF0.1
aI1
aI3
aI1
aI0
ag2
(g6
S'=\n\xd7\xa3p=\x02@'
p100
tp101
Rp102
aF0.9135
a(lp103
I200
aI400
aI600
aa(lp104
F0.985
aF0.5675
aF0.38
aa(lp105
I75
aI1150
aI2955
aaa(lp106
I100
aF0.1
aI2
aI2
aI1
aI0
ag2
(g6
S'ffffff\x06@'
p107
tp108
Rp109
aF0.7892
a(lp110
I200
aI400
aI600
aI800
aa(lp111
F1.0
aF0.9825
aF0.7766666666666666
aF0.35
aa(lp112
I0
aI0
aI2
aI108
aaa(lp113
I100
aF0.1
aI2
aI3
aI1
aI0
ag2
(g6
S'R\xb8\x1e\x85\xebQ\x17@'
p114
tp115
Rp116
aF0.9459
a(lp117
I200
aI400
aI600
aI800
aI1000
aa(lp118
F1.0
aF1.0
aF0.9183333333333333
aF0.72
aF0.583
aa(lp119
I0
aI15
aI488
aI1878
aI3694
aaa(lp120
I100
aF0.1
aI3
aI2
aI1
aI0
ag2
(g6
S'H\xe1z\x14\xaeG\t@'
p121
tp122
Rp123
aF0.5333333333333333
a(lp124
I200
aI400
aI600
aI800
aa(lp125
F1.0
aF0.985
aF0.8066666666666666
aF0.395
aa(lp126
I0
aI0
aI0
aI0
aaa(lp127
I100
aF0.1
aI3
aI3
aI1
aI0
ag2
(g6
S'{\x14\xaeG\xe1z"@'
p128
tp129
Rp130
aF0.9593
a(lp131
I200
aI400
aI600
aI800
aI1000
aI1200
aI1400
aa(lp132
F1.0
aF1.0
aF1.0
aF0.99625
aF0.911
aF0.7683333333333333
aF0.66
aa(lp133
I0
aI0
aI1
aI145
aI1020
aI2566
aI4407
aaa(lp134
I100
aF0.1
aI4
aI2
aI1
aI0
ag2
(g6
S'H\xe1z\x14\xaeG\x0b@'
p135
tp136
Rp137
aF0.4
a(lp138
I200
aI400
aI600
aI800
aa(lp139
F1.0
aF0.98
aF0.82
aF0.42625
aa(lp140
I0
aI0
aI0
aI0
aaa(lp141
I100
aF0.1
aI4
aI3
aI1
aI0
ag2
(g6
S'=\n\xd7\xa3p\xbd(@'
p142
tp143
Rp144
aF0.9552
a(lp145
I200
aI400
aI600
aI800
aI1000
aI1200
aI1400
aI1600
aa(lp146
F1.0
aF1.0
aF1.0
aF1.0
aF1.0
aF0.985
aF0.8835714285714286
aF0.773125
aa(lp147
I0
aI0
aI0
aI1
aI46
aI442
aI1602
aI3264
aaa(lp148
I100
aF0.1
aI5
aI2
aI1
aI0
ag2
(g6
S'\x00\x00\x00\x00\x00\x00\x0c@'
p149
tp150
Rp151
aF0.32
a(lp152
I200
aI400
aI600
aI800
aa(lp153
F1.0
aF0.9825
aF0.845
aF0.4375
aa(lp154
I0
aI0
aI0
aI0
aaa(lp155
I100
aF0.1
aI5
aI3
aI1
aI0
ag2
(g6
S'q=\n\xd7\xa3\xf0.@'
p156
tp157
Rp158
aF0.96444
a(lp159
I200
aI400
aI600
aI800
aI1000
aI1200
aI1400
aI1600
aI1800
aI2000
aa(lp160
F1.0
aF1.0
aF1.0
aF1.0
aF1.0
aF1.0
aF0.9985714285714286
aF0.955625
aF0.8577777777777778
aF0.7735
aa(lp161
I0
aI0
aI0
aI0
aI0
aI11
aI179
aI863
aI2234
aI3926
aaa(lp162
I100
aF0.1
aI6
aI2
aI1
aI0
ag2
(g6
S'{\x14\xaeG\xe1z\n@'
p163
tp164
Rp165
aF0.26666666666666666
a(lp166
I200
aI400
aI600
aI800
aa(lp167
F1.0
aF0.9925
aF0.8083333333333333
aF0.41375
aa(lp168
I0
aI0
aI0
aI0
aaa(lp169
I100
aF0.1
aI6
aI3
aI1
aI0
ag2
(g6
S'{\x14\xaeG\xe1z2@'
p170
tp171
Rp172
aF0.95675
a(lp173
I200
aI400
aI600
aI800
aI1000
aI1200
aI1400
aI1600
aI1800
aI2000
aI2200
aa(lp174
F1.0
aF1.0
aF1.0
aF1.0
aF1.0
aF1.0
aF1.0
aF1.0
aF0.9866666666666667
aF0.922
aF0.84
aa(lp175
I0
aI0
aI0
aI0
aI0
aI1
aI7
aI64
aI406
aI1369
aI2865
aaa(lp176
I100
aF0.15
aI1
aI2
aI1
aI0
ag2
(g6
S'\x9a\x99\x99\x99\x99\x99\xf5?'
p177
tp178
Rp179
aF0.9514
a(lp180
I200
aI400
aa(lp181
F0.98
aF0.3375
aa(lp182
I5
aI1243
aaa(lp183
I100
aF0.15
aI1
aI3
aI1
aI0
ag2
(g6
S'\x00\x00\x00\x00\x00\x00\x00@'
p184
tp185
Rp186
aF0.9486
a(lp187
I200
aI400
aa(lp188
F0.955
aF0.5
aa(lp189
I265
aI2838
aaa(lp190
I100
aF0.15
aI2
aI2
aI1
aI0
ag2
(g6
S'\xaeG\xe1z\x14\xae\xe7?'
p191
tp192
Rp193
aF0.6
a(lp194
I200
aI400
aa(lp195
F0.98
aF0.185
aa(lp196
I0
aI0
aaa(lp197
I100
aF0.15
aI2
aI3
aI1
aI0
ag2
(g6
S'\x14\xaeG\xe1z\x14\x11@'
p198
tp199
Rp200
aF0.9783
a(lp201
I200
aI400
aI600
aI800
aa(lp202
F1.0
aF0.99
aF0.7116666666666667
aF0.53375
aa(lp203
I0
aI278
aI2576
aI5478
aaa(lp204
I100
aF0.15
aI3
aI2
aI1
aI0
ag2
(g6
S'\xcd\xcc\xcc\xcc\xcc\xcc\xec?'
p205
tp206
Rp207
aF0.4
a(lp208
I200
aI400
aa(lp209
F0.99
aF0.225
aa(lp210
I0
aI0
aaa(lp211
I100
aF0.15
aI3
aI3
aI1
aI0
ag2
(g6
S'\xecQ\xb8\x1e\x85\xeb\x18@'
p212
tp213
Rp214
aF0.9826
a(lp215
I200
aI400
aI600
aI800
aI1000
aa(lp216
F1.0
aF1.0
aF0.9916666666666667
aF0.77875
aF0.623
aa(lp217
I0
aI0
aI206
aI2303
aI5174
aaa(lp218
I100
aF0.15
aI4
aI2
aI1
aI0
ag2
(g6
S'ffffff\xee?'
p219
tp220
Rp221
aF0.3
a(lp222
I200
aI400
aa(lp223
F0.99
aF0.2375
aa(lp224
I0
aI0
aaa(lp225
I100
aF0.15
aI4
aI3
aI1
aI0
ag2
(g6
S'\\\x8f\xc2\xf5(\\ @'
p226
tp227
Rp228
aF0.98415
a(lp229
I200
aI400
aI600
aI800
aI1000
aI1200
aa(lp230
F1.0
aF1.0
aF1.0
aF0.9925
aF0.821
aF0.6816666666666666
aa(lp231
I0
aI0
aI1
aI193
aI2049
aI4878
aaa(lp232
I100
aF0.15
aI5
aI2
aI1
aI0
ag2
(g6
S'\xb8\x1e\x85\xebQ\xb8\xee?'
p233
tp234
Rp235
aF0.24
a(lp236
I200
aI400
aa(lp237
F0.99
aF0.24
aa(lp238
I0
aI0
aaa(lp239
I100
aF0.15
aI5
aI3
aI1
aI0
ag2
(g6
S'z\x14\xaeG\xe1\xfa#@'
p240
tp241
Rp242
aF0.98466
a(lp243
I200
aI400
aI600
aI800
aI1000
aI1200
aI1400
aa(lp244
F1.0
aF1.0
aF1.0
aF0.99875
aF0.98
aF0.8358333333333333
aF0.7135714285714285
aa(lp245
I0
aI0
aI0
aI0
aI176
aI1850
aI4589
aaa(lp246
I100
aF0.15
aI6
aI2
aI1
aI0
ag2
(g6
S'\n\xd7\xa3p=\n\xef?'
p247
tp248
Rp249
aF0.2
a(lp250
I200
aI400
aa(lp251
F0.975
aF0.2425
aa(lp252
I0
aI0
aaa(lp253
I100
aF0.15
aI6
aI3
aI1
aI0
ag2
(g6
S"\n\xd7\xa3p=\x8a'@"
p254
tp255
Rp256
aF0.96905
a(lp257
I200
aI400
aI600
aI800
aI1000
aI1200
aI1400
aa(lp258
F1.0
aF1.0
aF1.0
aF1.0
aF0.997
aF0.9741666666666666
aF0.8407142857142857
aa(lp259
I0
aI0
aI0
aI0
aI1
aI151
aI1619
aaa(lp260
I100
aF0.2
aI1
aI2
aI1
aI0
aI0
aF0.9916
a(lp261
I200
aI400
aa(lp262
F0.17
aF0.015
aa(lp263
I42
aI3042
aaa(lp264
I100
aF0.2
aI1
aI3
aI1
aI0
ag2
(g6
S'\x14\xaeG\xe1z\x14\xfa?'
p265
tp266
Rp267
aF0.975
a(lp268
I200
aI400
aa(lp269
F0.825
aF0.4075
aa(lp270
I886
aI4750
aaa(lp271
I100
aF0.2
aI2
aI2
aI1
aI0
aI0
aF0.7987
a(lp272
I200
aI400
aa(lp273
F0.27
aF0.0025
aa(lp274
I0
aI13
aaa(lp275
I100
aF0.2
aI2
aI3
aI1
aI0
ag2
(g6
S'\x8f\xc2\xf5(\\\x8f\x08@'
p276
tp277
Rp278
aF0.9849
a(lp279
I200
aI400
aI600
aa(lp280
F1.0
aF0.77
aF0.5116666666666667
aa(lp281
I0
aI1559
aI5434
aaa(lp282
I100
aF0.2
aI3
aI2
aI1
aI0
aI0
aF0.5333333333333333
a(lp283
I200
aI400
aa(lp284
F0.38
aF0.005
aa(lp285
I0
aI0
aaa(lp286
I100
aF0.2
aI3
aI3
aI1
aI0
ag2
(g6
S'\n\xd7\xa3p=\n\x12@'
p287
tp288
Rp289
aF0.9902
a(lp290
I200
aI400
aI600
aI800
aa(lp291
F1.0
aF1.0
aF0.7533333333333333
aF0.56375
aa(lp292
I0
aI20
aI2207
aI6098
aaa(lp293
I100
aF0.2
aI4
aI2
aI1
aI0
aI0
aF0.4
a(lp294
I200
aI400
aa(lp295
F0.365
aF0.0025
aa(lp296
I0
aI0
aaa(lp297
I100
aF0.2
aI4
aI3
aI1
aI0
ag2
(g6
S'R\xb8\x1e\x85\xebQ\x15@'
p298
tp299
Rp300
aF0.9849
a(lp301
I200
aI400
aI600
aI800
aa(lp302
F1.0
aF1.0
aF0.9283333333333333
aF0.66625
aa(lp303
I0
aI0
aI110
aI2868
aaa(lp304
I100
aF0.2
aI5
aI2
aI1
aI0
aI0
aF0.32
a(lp305
I200
aI400
aa(lp306
F0.335
aF0.01
aa(lp307
I0
aI0
aaa(lp308
I100
aF0.2
aI5
aI3
aI1
aI0
ag2
(g6
S'\xb8\x1e\x85\xebQ\xb8\x10@'
p309
tp310
Rp311
aF0.9384
a(lp312
I200
aI400
aI600
aI800
aa(lp313
F1.0
aF1.0
aF0.9383333333333334
aF0.5225
aa(lp314
I0
aI0
aI0
aI360
aaa(lp315
I100
aF0.2
aI6
aI2
aI1
aI0
aI0
aF0.26666666666666666
a(lp316
I200
aI400
aa(lp317
F0.295
aF0.005
aa(lp318
I0
aI0
aaa(lp319
I100
aF0.2
aI6
aI3
aI1
aI0
ag2
(g6
S'ffffff\x12@'
p320
tp321
Rp322
aF0.79995
a(lp323
I200
aI400
aI600
aI800
aa(lp324
F1.0
aF0.9975
aF0.9383333333333334
aF0.575
aa(lp325
I0
aI0
aI0
aI1
aaa(lp326
I100
aF0.3
aI1
aI2
aI1
aI0
aI0
aF0.9864
a(lp327
I200
aa(lp328
F0.005
aa(lp329
I1068
aaa(lp330
I100
aF0.3
aI1
aI3
aI1
aI0
ag2
(g6
S'\xb8\x1e\x85\xebQ\xb8\xee?'
p331
tp332
Rp333
aF0.99
a(lp334
I200
aI400
aa(lp335
F0.49
aF0.24
aa(lp336
I2710
aI8700
aaa(lp337
I100
aF0.3
aI2
aI2
aI1
aI0
aI0
aF0.6
a(lp338
I200
aa(lp339
F0.005
aa(lp340
I0
aaa(lp341
I100
aF0.3
aI2
aI3
aI1
aI0
ag2
(g6
S'\x8f\xc2\xf5(\\\x8f\xea?'
p342
tp343
Rp344
aF0.98955
a(lp345
I200
aI400
aa(lp346
F0.62
aF0.2075
aa(lp347
I109
aI5403
aaa(lp348
I100
aF0.3
aI3
aI2
aI1
aI0
aI0
aF0.4
a(lp349
I200
aa(lp350
F0.005
aa(lp351
I0
aaa(lp352
I100
aF0.3
aI3
aI3
aI1
aI0
aI0
aF0.9885
a(lp353
I200
aI400
aa(lp354
F0.595
aF0.02
aa(lp355
I0
aI2115
aaa(lp356
I100
aF0.3
aI4
aI2
aI1
aI0
aI0
aF0.3
a(lp357
I200
aa(lp358
F0.005
aa(lp359
I0
aaa(lp360
I100
aF0.3
aI4
aI3
aI1
aI0
aI0
aF0.8931
a(lp361
I200
aI400
aa(lp362
F0.69
aF0.005
aa(lp363
I0
aI92
aaa(lp364
I100
aF0.3
aI5
aI2
aI1
aI0
aI0
aF0.24
a(lp365
I200
aa(lp366
F0.005
aa(lp367
I0
aaa(lp368
I100
aF0.3
aI5
aI3
aI1
aI0
aI0
aF0.72
a(lp369
I200
aI400
aa(lp370
F0.69
aF0.0125
aa(lp371
I0
aI0
aaa(lp372
I100
aF0.3
aI6
aI2
aI1
aI0
aI0
aF0.2
a(lp373
I200
aa(lp374
F0.005
aa(lp375
I0
aaa(lp376
I100
aF0.3
aI6
aI3
aI1
aI0
aI0
aF0.6
a(lp377
I200
aI400
aa(lp378
F0.68
aF0.015
aa(lp379
I0
aI0
aaa(lp380
I100
aF0.5
aI1
aI2
aI1
aI0
aI0
aF1.0
a(lp381
I200
aa(lp382
F0.005
aa(lp383
I5000
aaa(lp384
I100
aF0.5
aI1
aI3
aI1
aI0
aI0
aF0.99
a(lp385
I200
aa(lp386
F0.005
aa(lp387
I6700
aaa(lp388
I100
aF0.5
aI2
aI2
aI1
aI0
aI0
aF0.9628
a(lp389
I200
aa(lp390
F0.005
aa(lp391
I372
aaa(lp392
I100
aF0.5
aI2
aI3
aI1
aI0
aI0
aF0.99
a(lp393
I200
aa(lp394
F0.005
aa(lp395
I3400
aaa(lp396
I100
aF0.5
aI3
aI2
aI1
aI0
aI0
aF0.6666666666666666
a(lp397
I200
aa(lp398
F0.005
aa(lp399
I0
aaa(lp400
I100
aF0.5
aI3
aI3
aI1
aI0
aI0
aF0.9612
a(lp401
I200
aa(lp402
F0.005
aa(lp403
I388
aaa(lp404
I100
aF0.5
aI4
aI2
aI1
aI0
aI0
aF0.5
a(lp405
I200
aa(lp406
F0.005
aa(lp407
I0
aaa(lp408
I100
aF0.5
aI4
aI3
aI1
aI0
aI0
aF0.75
a(lp409
I200
aa(lp410
F0.005
aa(lp411
I0
aaa(lp412
I100
aF0.5
aI5
aI2
aI1
aI0
aI0
aF0.4
a(lp413
I200
aa(lp414
F0.005
aa(lp415
I0
aaa(lp416
I100
aF0.5
aI5
aI3
aI1
aI0
aI0
aF0.6
a(lp417
I200
aa(lp418
F0.005
aa(lp419
I0
aaa(lp420
I100
aF0.5
aI6
aI2
aI1
aI0
aI0
aF0.3333333333333333
a(lp421
I200
aa(lp422
F0.005
aa(lp423
I0
aaa(lp424
I100
aF0.5
aI6
aI3
aI1
aI0
aI0
aF0.5
a(lp425
I200
aa(lp426
F0.005
aa(lp427
I0
aaa(lp428
I200
aF0.05
aI1
aI2
aI1
aI0
ag2
(g6
S'\x9a\x99\x99\x99\x99\x99 @'
p429
tp430
Rp431
aF0.90335
a(lp432
I200
aI400
aI600
aI800
aI1000
aI1200
aI1400
aI1600
aI1800
aI2000
aI2200
aa(lp433
F1.0
aF1.0
aF1.0
aF1.0
aF0.999
aF0.9991666666666666
aF0.9978571428571429
aF0.9775
aF0.9083333333333333
aF0.829
aF0.7545454545454545
aa(lp434
I0
aI0
aI0
aI1
aI12
aI83
aI263
aI710
aI1480
aI2570
aI3933
aaa(lp435
I200
aF0.05
aI1
aI3
aI1
aI0
ag2
(g6
S'\xadG\xe1z\x14.\x12@'
p436
tp437
Rp438
aF0.820425
a(lp439
I200
aI400
aI600
aI800
aI1000
aI1200
aI1400
aa(lp440
F1.0
aF1.0
aF0.9983333333333333
aF0.98375
aF0.899
aF0.7666666666666667
aF0.6492857142857142
aa(lp441
I0
aI0
aI31
aI217
aI752
aI1748
aI3061
aaa(lp442
I200
aF0.05
aI2
aI2
aI1
aI0
ag2
(g6
S'=\n\xd7\xa3p}-@'
p443
tp444
Rp445
aF0.864375
a(lp446
I200
aI400
aI600
aI800
aI1000
aI1200
aI1400
aI1600
aI1800
aI2000
aI2200
aI2400
aI2600
aI2800
aI3000
aI3200
aI3400
aI3600
aa(lp447
F1.0
aF1.0
aF1.0
aF1.0
aF1.0
aF1.0
aF1.0
aF1.0
aF1.0
aF1.0
aF0.9981818181818182
aF0.9954166666666666
aF0.9892307692307692
aF0.9807142857142858
aF0.962
aF0.9246875
aF0.8752941176470588
aF0.8191666666666667
aa(lp448
I0
aI0
aI0
aI0
aI0
aI0
aI0
aI0
aI0
aI0
aI0
aI7
aI25
aI61
aI167
aI406
aI801
aI1425
aaa(lp449
I200
aF0.05
aI2
aI3
aI1
aI0
ag2
(g6
S'\x1f\x85\xebQ\xb8\xde$@'
p450
tp451
Rp452
aF0.9059625
a(lp453
I200
aI400
aI600
aI800
aI1000
aI1200
aI1400
aI1600
aI1800
aI2000
aI2200
aI2400
aI2600
aI2800
aI3000
aa(lp454
F1.0
aF1.0
aF1.0
aF1.0
aF1.0
aF1.0
aF1.0
aF0.99375
aF0.9833333333333333
aF0.9565
aF0.9072727272727272
aF0.85375
aF0.7961538461538461
aF0.7439285714285714
aF0.6956666666666667
aa(lp455
I0
aI0
aI0
aI0
aI0
aI1
aI9
aI45
aI143
aI400
aI944
aI1785
aI2913
aI4292
aI5841
aaa(lp456
I200
aF0.05
aI3
aI2
aI1
aI0
ag2
(g6
S'R\xb8\x1e\x85\xebq0@'
p457
tp458
Rp459
aF0.6665833333333333
a(lp460
I200
aI400
aI600
aI800
aI1000
aI1200
aI1400
aI1600
aI1800
aI2000
aI2200
aI2400
aI2600
aI2800
aI3000
aI3200
aI3400
aI3600
aI3800
aI4000
aa(lp461
F1.0
aF1.0
aF1.0
aF1.0
aF1.0
aF1.0
aF1.0
aF1.0
aF1.0
aF0.9995
aF0.9995454545454545
aF0.9975
aF0.9942307692307693
aF0.9871428571428571
aF0.978
aF0.9625
aF0.9402941176470588
aF0.9116666666666666
aF0.8752631578947369
aF0.82225
aa(lp462
I0
aI0
aI0
aI0
aI0
aI0
aI0
aI0
aI0
aI0
aI0
aI0
aI0
aI0
aI0
aI0
aI0
aI0
aI0
aI5
aaa(lp463
I200
aF0.05
aI3
aI3
aI1
aI0
ag2
(g6
S'=\n\xd7\xa3p}1@'
p464
tp465
Rp466
aF0.935075
a(lp467
I200
aI400
aI600
aI800
aI1000
aI1200
aI1400
aI1600
aI1800
aI2000
aI2200
aI2400
aI2600
aI2800
aI3000
aI3200
aI3400
aI3600
aI3800
aI4000
aI4200
aI4400
aI4600
aa(lp468
F1.0
aF1.0
aF1.0
aF1.0
aF1.0
aF1.0
aF1.0
aF1.0
aF1.0
aF1.0
aF1.0
aF0.9991666666666666
aF0.9984615384615385
aF0.9967857142857143
aF0.9923333333333333
aF0.9825
aF0.9661764705882353
aF0.9363888888888889
aF0.9036842105263158
aF0.866
aF0.829047619047619
aF0.7940909090909091
aF0.7604347826086957
aa(lp469
I0
aI0
aI0
aI0
aI0
aI0
aI0
aI0
aI0
aI0
aI2
aI7
aI25
aI73
aI226
aI523
aI1029
aI1771
aI2739
aI3995
aI5399
aI6962
aI8597
aaa(lp470
I200
aF0.05
aI4
aI2
aI1
aI0
ag2
(g6
S'fffff\xa60@'
p471
tp472
Rp473
aF0.5
a(lp474
I200
aI400
aI600
aI800
aI1000
aI1200
aI1400
aI1600
aI1800
aI2000
aI2200
aI2400
aI2600
aI2800
aI3000
aI3200
aI3400
aI3600
aI3800
aI4000
aa(lp475
F1.0
aF1.0
aF1.0
aF1.0
aF1.0
aF1.0
aF0.9992857142857143
aF0.999375
aF0.9994444444444445
aF0.9985
aF0.9981818181818182
aF0.9945833333333334
aF0.9915384615384616
aF0.9878571428571429
aF0.979
aF0.9659375
aF0.9429411764705883
aF0.9136111111111112
aF0.8792105263157894
aF0.8325
aa(lp476
I0
aI0
aI0
aI0
aI0
aI0
aI0
aI0
aI0
aI0
aI0
aI0
aI0
aI0
aI0
aI0
aI0
aI0
aI0
aI0
aaa(lp477
I200
aF0.05
aI4
aI3
aI1
aI0
ag2
(g6
S'\x1f\x85\xebQ\xb8\xde7@'
p478
tp479
Rp480
aF0.8908875
a(lp481
I200
aI400
aI600
aI800
aI1000
aI1200
aI1400
aI1600
aI1800
aI2000
aI2200
aI2400
aI2600
aI2800
aI3000
aI3200
aI3400
aI3600
aI3800
aI4000
aI4200
aI4400
aI4600
aI4800
aI5000
aa(lp482
F1.0
aF1.0
aF1.0
aF1.0
aF1.0
aF1.0
aF1.0
aF1.0
aF1.0
aF1.0
aF1.0
aF1.0
aF1.0
aF1.0
aF1.0
aF0.9996875
aF0.9997058823529412
aF0.9997222222222222
aF0.9992105263157894
aF0.99775
aF0.9959523809523809
aF0.9925
aF0.9856521739130435
aF0.97375
aF0.9548
aa(lp483
I0
aI0
aI0
aI0
aI0
aI0
aI0
aI0
aI0
aI0
aI0
aI0
aI0
aI0
aI1
aI4
aI9
aI15
aI47
aI117
aI268
aI540
aI983
aI1625
aI2486
aaa(lp484
I200
aF0.05
aI5
aI2
aI1
aI0
ag2
(g6
S'\xd7\xa3p=\n\xd70@'
p485
tp486
Rp487
aF0.4
a(lp488
I200
aI400
aI600
aI800
aI1000
aI1200
aI1400
aI1600
aI1800
aI2000
aI2200
aI2400
aI2600
aI2800
aI3000
aI3200
aI3400
aI3600
aI3800
aI4000
aa(lp489
F1.0
aF1.0
aF1.0
aF1.0
aF1.0
aF1.0
aF1.0
aF1.0
aF1.0
aF1.0
aF0.9981818181818182
aF0.9958333333333333
aF0.9926923076923077
aF0.9871428571428571
aF0.9806666666666667
aF0.9728125
aF0.9526470588235294
aF0.9222222222222223
aF0.8842105263157894
aF0.842
aa(lp490
I0
aI0
aI0
aI0
aI0
aI0
aI0
aI0
aI0
aI0
aI0
aI0
aI0
aI0
aI0
aI0
aI0
aI0
aI0
aI0
aaa(lp491
I200
aF0.05
aI5
aI3
aI1
aI0
ag2
(g6
S'\x00\x00\x00\x00\x00\x009@'
p492
tp493
Rp494
aF0.748755
a(lp495
I200
aI400
aI600
aI800
aI1000
aI1200
aI1400
aI1600
aI1800
aI2000
aI2200
aI2400
aI2600
aI2800
aI3000
aI3200
aI3400
aI3600
aI3800
aI4000
aI4200
aI4400
aI4600
aI4800
aI5000
aa(lp496
F1.0
aF1.0
aF1.0
aF1.0
aF1.0
aF1.0
aF1.0
aF1.0
aF1.0
aF1.0
aF1.0
aF1.0
aF1.0
aF1.0
aF1.0
aF1.0
aF1.0
aF1.0
aF1.0
aF1.0
aF1.0
aF1.0
aF1.0
aF1.0
aF1.0
aa(lp497
I0
aI0
aI0
aI0
aI0
aI0
aI0
aI0
aI0
aI0
aI0
aI0
aI0
aI0
aI0
aI0
aI0
aI0
aI0
aI2
aI4
aI7
aI17
aI32
aI83
aaa(lp498
I200
aF0.05
aI6
aI2
aI1
aI0
ag2
(g6
S'H\xe1z\x14\xaeG0@'
p499
tp500
Rp501
aF0.35
a(lp502
I200
aI400
aI600
aI800
aI1000
aI1200
aI1400
aI1600
aI1800
aI2000
aI2200
aI2400
aI2600
aI2800
aI3000
aI3200
aI3400
aI3600
aI3800
aI4000
aI4200
aa(lp503
F1.0
aF1.0
aF1.0
aF1.0
aF1.0
aF1.0
aF1.0
aF0.999375
aF0.9994444444444445
aF0.9995
aF0.9990909090909091
aF0.9958333333333333
aF0.9923076923076923
aF0.9875
aF0.9796666666666667
aF0.9675
aF0.9464705882352941
aF0.9197222222222222
aF0.8776315789473684
aF0.838
aF0.7752380952380953
aa(lp504
I0
aI0
aI0
aI0
aI0
aI0
aI0
aI0
aI0
aI0
aI0
aI0
aI0
aI0
aI0
aI0
aI0
aI0
aI0
aI0
aI0
aaa(lp505
I200
aF0.05
aI6
aI3
aI1
aI0
ag2
(g6
S'\x00\x00\x00\x00\x00\x009@'
p506
tp507
Rp508
aF0.625
a(lp509
I200
aI400
aI600
aI800
aI1000
aI1200
aI1400
aI1600
aI1800
aI2000
aI2200
aI2400
aI2600
aI2800
aI3000
aI3200
aI3400
aI3600
aI3800
aI4000
aI4200
aI4400
aI4600
aI4800
aI5000
aa(lp510
F1.0
aF1.0
aF1.0
aF1.0
aF1.0
aF1.0
aF1.0
aF1.0
aF1.0
aF1.0
aF1.0
aF1.0
aF1.0
aF1.0
aF1.0
aF1.0
aF1.0
aF1.0
aF1.0
aF1.0
aF1.0
aF1.0
aF1.0
aF1.0
aF1.0
aa(lp511
I0
aI0
aI0
aI0
aI0
aI0
aI0
aI0
aI0
aI0
aI0
aI0
aI0
aI0
aI0
aI0
aI0
aI0
aI0
aI0
aI0
aI0
aI0
aI0
aI0
aaa(lp512
I200
aF0.1
aI1
aI2
aI1
aI0
ag2
(g6
S'ffffff\x0e@'
p513
tp514
Rp515
aF0.92495
a(lp516
I200
aI400
aI600
aI800
aI1000
aa(lp517
F1.0
aF1.0
aF0.9966666666666667
aF0.9675
aF0.76
aa(lp518
I0
aI0
aI1
aI171
aI1501
aaa(lp519
I200
aF0.1
aI1
aI3
aI1
aI0
ag2
(g6
S'R\xb8\x1e\x85\xebQ\t@'
p520
tp521
Rp522
aF0.959625
a(lp523
I200
aI400
aI600
aI800
aI1000
aa(lp524
F1.0
aF1.0
aF0.9783333333333334
aF0.78875
aF0.633
aa(lp525
I0
aI8
aI735
aI3502
aI7205
aaa(lp526
I200
aF0.1
aI2
aI2
aI1
aI0
ag2
(g6
S'\x1d\x85\xebQ\xb8\x1e\x08@'
p527
tp528
Rp529
aF0.6
a(lp530
I200
aI400
aI600
aI800
aI1000
aI1200
aa(lp531
F1.0
aF1.0
aF1.0
aF0.98875
aF0.876
aF0.5025
aa(lp532
I0
aI0
aI0
aI0
aI0
aI0
aaa(lp533
I200
aF0.1
aI2
aI3
aI1
aI0
ag2
(g6
S'H\xe1z\x14\xae\xc7\x1a@'
p534
tp535
Rp536
aF0.9784125
a(lp537
I200
aI400
aI600
aI800
aI1000
aI1200
aI1400
aI1600
aI1800
aa(lp538
F1.0
aF1.0
aF1.0
aF1.0
aF1.0
aF0.9991666666666666
aF0.9478571428571428
aF0.83625
aF0.7438888888888889
aa(lp539
I0
aI0
aI0
aI0
aI27
aI598
aI2739
aI6123
aI9909
aaa(lp540
I200
aF0.1
aI3
aI2
aI1
aI0
ag2
(g6
S'\xa5p=\n\xd7\xa3\n@'
p541
tp542
Rp543
aF0.4
a(lp544
I200
aI400
aI600
aI800
aI1000
aI1200
aa(lp545
F1.0
aF1.0
aF1.0
aF0.99
aF0.887
aF0.555
aa(lp546
I0
aI0
aI0
aI0
aI0
aI0
aaa(lp547
I200
aF0.1
aI3
aI3
aI1
aI0
ag2
(g6
S'33333\xb3#@'
p548
tp549
Rp550
aF0.980625
a(lp551
I200
aI400
aI600
aI800
aI1000
aI1200
aI1400
aI1600
aI1800
aI2000
aI2200
aI2400
aa(lp552
F1.0
aF1.0
aF1.0
aF1.0
aF1.0
aF1.0
aF1.0
aF1.0
aF1.0
aF0.9755
aF0.8959090909090909
aF0.8208333333333333
aa(lp553
I0
aI0
aI0
aI0
aI0
aI0
aI0
aI30
aI458
aI2125
aI5131
aI8775
aaa(lp554
I200
aF0.1
aI4
aI2
aI1
aI0
ag2
(g6
S'\x9a\x99\x99\x99\x99\x99\x0b@'
p555
tp556
Rp557
aF0.3
a(lp558
I200
aI400
aI600
aI800
aI1000
aI1200
aa(lp559
F1.0
aF1.0
aF1.0
aF0.98625
aF0.901
aF0.575
aa(lp560
I0
aI0
aI0
aI0
aI0
aI0
aaa(lp561
I200
aF0.1
aI4
aI3
aI1
aI0
ag2
(g6
S'R\xb8\x1e\x85\xeb\x11*@'
p562
tp563
Rp564
aF0.9813375
a(lp565
I200
aI400
aI600
aI800
aI1000
aI1200
aI1400
aI1600
aI1800
aI2000
aI2200
aI2400
aI2600
aI2800
aI3000
aa(lp566
F1.0
aF1.0
aF1.0
aF1.0
aF1.0
aF1.0
aF1.0
aF1.0
aF1.0
aF1.0
aF1.0
aF1.0
aF0.9865384615384616
aF0.93
aF0.869
aa(lp567
I0
aI0
aI0
aI0
aI0
aI0
aI0
aI0
aI0
aI0
aI42
aI399
aI1714
aI4303
aI7662
aaa(lp568
I200
aF0.1
aI5
aI2
aI1
aI0
ag2
(g6
S'=\n\xd7\xa3p=\x0c@'
p569
tp570
Rp571
aF0.24
a(lp572
I200
aI400
aI600
aI800
aI1000
aI1200
aa(lp573
F1.0
aF1.0
aF1.0
aF0.9925
aF0.9
aF0.5883333333333334
aa(lp574
I0
aI0
aI0
aI0
aI0
aI0
aaa(lp575
I200
aF0.1
aI5
aI3
aI1
aI0
ag2
(g6
S'3333330@'
p576
tp577
Rp578
aF0.980805
a(lp579
I200
aI400
aI600
aI800
aI1000
aI1200
aI1400
aI1600
aI1800
aI2000
aI2200
aI2400
aI2600
aI2800
aI3000
aI3200
aI3400
aI3600
aa(lp580
F1.0
aF1.0
aF1.0
aF1.0
aF1.0
aF1.0
aF1.0
aF1.0
aF1.0
aF1.0
aF1.0
aF1.0
aF1.0
aF1.0
aF1.0
aF0.9925
aF0.9523529411764706
aF0.9
aa(lp581
I0
aI0
aI0
aI0
aI0
aI0
aI0
aI0
aI0
aI0
aI0
aI0
aI4
aI36
aI320
aI1339
aI3486
aI6613
aaa(lp582
I200
aF0.1
aI6
aI2
aI1
aI0
ag2
(g6
S'\x9a\x99\x99\x99\x99\x99\x0c@'
p583
tp584
Rp585
aF0.2
a(lp586
I200
aI400
aI600
aI800
aI1000
aI1200
aa(lp587
F1.0
aF1.0
aF1.0
aF0.9925
aF0.905
aF0.5958333333333333
aa(lp588
I0
aI0
aI0
aI0
aI0
aI0
aaa(lp589
I200
aF0.1
aI6
aI3
aI1
aI0
ag2
(g6
S'R\xb8\x1e\x85\xebQ3@'
p590
tp591
Rp592
aF0.9791875
a(lp593
I200
aI400
aI600
aI800
aI1000
aI1200
aI1400
aI1600
aI1800
aI2000
aI2200
aI2400
aI2600
aI2800
aI3000
aI3200
aI3400
aI3600
aI3800
aI4000
aI4200
aa(lp594
F1.0
aF1.0
aF1.0
aF1.0
aF1.0
aF1.0
aF1.0
aF1.0
aF1.0
aF1.0
aF1.0
aF1.0
aF1.0
aF1.0
aF1.0
aF1.0
aF1.0
aF1.0
aF0.9957894736842106
aF0.96375
aF0.92
aa(lp595
I0
aI0
aI0
aI0
aI0
aI0
aI0
aI0
aI0
aI0
aI0
aI0
aI0
aI0
aI0
aI2
aI26
aI224
aI1005
aI2871
aI5665
aaa(lp596
I200
aF0.15
aI1
aI2
aI1
aI0
aI0
aF0.88415
a(lp597
I200
aI400
aI600
aa(lp598
F1.0
aF0.835
aF0.045
aa(lp599
I0
aI0
aI317
aaa(lp600
I200
aF0.15
aI1
aI3
aI1
aI0
ag2
(g6
S'H\xe1z\x14\xaeG\x02@'
p601
tp602
Rp603
aF0.983175
a(lp604
I200
aI400
aI600
aI800
aa(lp605
F1.0
aF1.0
aF0.7633333333333333
aF0.57125
aa(lp606
I0
aI415
aI5015
aI10891
aaa(lp607
I200
aF0.15
aI2
aI2
aI1
aI0
aI0
aF0.45
a(lp608
I200
aI400
aI600
aa(lp609
F1.0
aF0.91
aF0.09166666666666666
aa(lp610
I0
aI0
aI0
aaa(lp611
I200
aF0.15
aI2
aI3
aI1
aI0
ag2
(g6
S'ffffff\x11@'
p612
tp613
Rp614
aF0.987975
a(lp615
I200
aI400
aI600
aI800
aI1000
aI1200
aa(lp616
F1.0
aF1.0
aF1.0
aF1.0
aF0.87
aF0.725
aa(lp617
I0
aI0
aI0
aI311
aI3924
aI9654
aaa(lp618
I200
aF0.15
aI3
aI2
aI1
aI0
ag2
(g6
S'\x1f\x85\xebQ\xb8\x1e\xd5?'
p619
tp620
Rp621
aF0.3
a(lp622
I200
aI400
aI600
aa(lp623
F1.0
aF0.9175
aF0.11
aa(lp624
I0
aI0
aI0
aaa(lp625
I200
aF0.15
aI3
aI3
aI1
aI0
ag2
(g6
S'ffffff\x19@'
p626
tp627
Rp628
aF0.989575
a(lp629
I200
aI400
aI600
aI800
aI1000
aI1200
aI1400
aI1600
aa(lp630
F1.0
aF1.0
aF1.0
aF1.0
aF1.0
aF0.9991666666666666
aF0.91
aF0.79375
aa(lp631
I0
aI0
aI0
aI0
aI0
aI221
aI3010
aI8417
aaa(lp632
I200
aF0.15
aI4
aI2
aI1
aI0
ag2
(g6
S'F\xe1z\x14\xaeG\xd9?'
p633
tp634
Rp635
aF0.225
a(lp636
I200
aI400
aI600
aa(lp637
F1.0
aF0.9225
aF0.13166666666666665
aa(lp638
I0
aI0
aI0
aaa(lp639
I200
aF0.15
aI4
aI3
aI1
aI0
ag2
(g6
S'\x00\x00\x00\x00\x00\xc0 @'
p640
tp641
Rp642
aF0.98953125
a(lp643
I200
aI400
aI600
aI800
aI1000
aI1200
aI1400
aI1600
aI1800
aI2000
aa(lp644
F1.0
aF1.0
aF1.0
aF1.0
aF1.0
aF1.0
aF1.0
aF1.0
aF0.9344444444444444
aF0.8375
aa(lp645
I0
aI0
aI0
aI0
aI0
aI0
aI1
aI160
aI2236
aI7225
aaa(lp646
I200
aF0.15
aI5
aI2
aI1
aI0
ag2
(g6
S'R\xb8\x1e\x85\xebQ\xd8?'
p647
tp648
Rp649
aF0.18
a(lp650
I200
aI400
aI600
aa(lp651
F1.0
aF0.945
aF0.12666666666666668
aa(lp652
I0
aI0
aI0
aaa(lp653
I200
aF0.15
aI5
aI3
aI1
aI0
ag2
(g6
S'\xe1z\x14\xaeG!$@'
p654
tp655
Rp656
aF0.98874
a(lp657
I200
aI400
aI600
aI800
aI1000
aI1200
aI1400
aI1600
aI1800
aI2000
aI2200
aI2400
aa(lp658
F1.0
aF1.0
aF1.0
aF1.0
aF1.0
aF1.0
aF1.0
aF0.999375
aF0.9988888888888889
aF0.9905
aF0.9222727272727272
aF0.83875
aa(lp659
I0
aI0
aI0
aI0
aI0
aI0
aI0
aI0
aI3
aI98
aI1600
aI6084
aaa(lp660
I200
aF0.15
aI6
aI2
aI1
aI0
ag2
(g6
S'\xe3z\x14\xaeG\xe1\xda?'
p661
tp662
Rp663
aF0.15
a(lp664
I200
aI400
aI600
aa(lp665
F1.0
aF0.8875
aF0.14
aa(lp666
I0
aI0
aI0
aaa(lp667
I200
aF0.15
aI6
aI3
aI1
aI0
ag2
(g6
S'\n\xd7\xa3p=\xca$@'
p668
tp669
Rp670
aF0.960425
a(lp671
I200
aI400
aI600
aI800
aI1000
aI1200
aI1400
aI1600
aI1800
aI2000
aI2200
aI2400
aI2600
aa(lp672
F1.0
aF1.0
aF1.0
aF1.0
aF1.0
aF1.0
aF1.0
aF1.0
aF0.9977777777777778
aF0.9915
aF0.975
aF0.9208333333333333
aF0.7996153846153846
aa(lp673
I0
aI0
aI0
aI0
aI0
aI0
aI0
aI0
aI0
aI0
aI2
aI69
aI1166
aaa(lp674
I200
aF0.2
aI1
aI2
aI1
aI0
aI0
aF0.7995
a(lp675
I200
aI400
aa(lp676
F0.865
aF0.005
aa(lp677
I0
aI10
aaa(lp678
I200
aF0.2
aI1
aI3
aI1
aI0
ag2
(g6
S'R\xb8\x1e\x85\xebQ\xfa?'
p679
tp680
Rp681
aF0.987975
a(lp682
I200
aI400
aI600
aa(lp683
F1.0
aF0.8275
aF0.5483333333333333
aa(lp684
I0
aI3004
aI10827
aaa(lp685
I200
aF0.2
aI2
aI2
aI1
aI0
aI0
aF0.4
a(lp686
I200
aI400
aa(lp687
F0.935
aF0.015
aa(lp688
I0
aI0
aaa(lp689
I200
aF0.2
aI2
aI3
aI1
aI0
ag2
(g6
S')\\\x8f\xc2\xf5(\t@'
p690
tp691
Rp692
aF0.993975
a(lp693
I200
aI400
aI600
aI800
aI1000
aa(lp694
F1.0
aF1.0
aF0.9966666666666667
aF0.7875
aF0.629
aa(lp695
I0
aI0
aI182
aI5604
aI13494
aaa(lp696
I200
aF0.2
aI3
aI2
aI1
aI0
aI0
aF0.26666666666666666
a(lp697
I200
aI400
aa(lp698
F0.925
aF0.015
aa(lp699
I0
aI0
aaa(lp700
I200
aF0.2
aI3
aI3
aI1
aI0
ag2
(g6
S'\x9a\x99\x99\x99\x99\x99\x0f@'
p701
tp702
Rp703
aF0.965325
a(lp704
I200
aI400
aI600
aI800
aI1000
aa(lp705
F1.0
aF1.0
aF1.0
aF0.99375
aF0.79
aa(lp706
I0
aI0
aI0
aI0
aI1387
aaa(lp707
I200
aF0.2
aI4
aI2
aI1
aI0
aI0
aF0.2
a(lp708
I200
aI400
aa(lp709
F0.94
aF0.015
aa(lp710
I0
aI0
aaa(lp711
I200
aF0.2
aI4
aI3
aI1
aI0
ag2
(g6
S'333333\x00@'
p712
tp713
Rp714
aF0.89805
a(lp715
I200
aI400
aI600
aI800
aI1000
aI1200
aa(lp716
F1.0
aF1.0
aF1.0
aF0.98875
aF0.813
aF0.3375
aa(lp717
I0
aI0
aI0
aI0
aI0
aI104
aaa(lp718
I200
aF0.2
aI5
aI2
aI1
aI0
aI0
aF0.16
a(lp719
I200
aI400
aa(lp720
F0.895
aF0.02
aa(lp721
I0
aI0
aaa(lp722
I200
aF0.2
aI5
aI3
aI1
aI0
ag2
(g6
S'|\x14\xaeG\xe1z\x01@'
p723
tp724
Rp725
aF0.72
a(lp726
I200
aI400
aI600
aI800
aI1000
aI1200
aa(lp727
F1.0
aF1.0
aF1.0
aF0.99375
aF0.838
aF0.3641666666666667
aa(lp728
I0
aI0
aI0
aI0
aI0
aI0
aaa(lp729
I200
aF0.2
aI6
aI2
aI1
aI0
aI0
aF0.13333333333333333
a(lp730
I200
aI400
aa(lp731
F0.905
aF0.02
aa(lp732
I0
aI0
aaa(lp733
I200
aF0.2
aI6
aI3
aI1
aI0
ag2
(g6
S'=\n\xd7\xa3p=\x03@'
p734
tp735
Rp736
aF0.6
a(lp737
I200
aI400
aI600
aI800
aI1000
aI1200
aa(lp738
F1.0
aF1.0
aF1.0
aF0.9975
aF0.859
aF0.4008333333333333
aa(lp739
I0
aI0
aI0
aI0
aI0
aI0
aaa(lp740
I200
aF0.3
aI1
aI2
aI1
aI0
aI0
aF0.6
a(lp741
I200
aa(lp742
F0.005
aa(lp743
I0
aaa(lp744
I200
aF0.3
aI1
aI3
aI1
aI0
ag2
(g6
S'\xf6(\\\x8f\xc2\xf5\xec?'
p745
tp746
Rp747
aF0.99
a(lp748
I200
aI400
aa(lp749
F0.975
aF0.4525
aa(lp750
I197
aI10800
aaa(lp751
I200
aF0.3
aI2
aI2
aI1
aI0
aI0
aF0.3
a(lp752
I200
aa(lp753
F0.01
aa(lp754
I0
aaa(lp755
I200
aF0.3
aI2
aI3
aI1
aI0
aI0
aF0.8944875
a(lp756
I200
aI400
aa(lp757
F0.975
aF0.0125
aa(lp758
I0
aI147
aaa(lp759
I200
aF0.3
aI3
aI2
aI1
aI0
aI0
aF0.2
a(lp760
I200
aa(lp761
F0.01
aa(lp762
I0
aaa(lp763
I200
aF0.3
aI3
aI3
aI1
aI0
aI0
aF0.6
a(lp764
I200
aI400
aa(lp765
F0.99
aF0.0225
aa(lp766
I0
aI0
aaa(lp767
I200
aF0.3
aI4
aI2
aI1
aI0
aI0
aF0.15
a(lp768
I200
aa(lp769
F0.01
aa(lp770
I0
aaa(lp771
I200
aF0.3
aI4
aI3
aI1
aI0
aI0
aF0.45
a(lp772
I200
aI400
aa(lp773
F1.0
aF0.025
aa(lp774
I0
aI0
aaa(lp775
I200
aF0.3
aI5
aI2
aI1
aI0
aI0
aF0.12
a(lp776
I200
aa(lp777
F0.005
aa(lp778
I0
aaa(lp779
I200
aF0.3
aI5
aI3
aI1
aI0
aI0
aF0.36
a(lp780
I200
aI400
aa(lp781
F0.995
aF0.035
aa(lp782
I0
aI0
aaa(lp783
I200
aF0.3
aI6
aI2
aI1
aI0
aI0
aF0.1
a(lp784
I200
aa(lp785
F0.005
aa(lp786
I0
aaa(lp787
I200
aF0.3
aI6
aI3
aI1
aI0
aI0
aF0.3
a(lp788
I200
aI400
aa(lp789
F0.985
aF0.035
aa(lp790
I0
aI0
aaa(lp791
I200
aF0.5
aI1
aI2
aI1
aI0
aI0
aF0.97015
a(lp792
I200
aa(lp793
F0.005
aa(lp794
I597
aaa(lp795
I200
aF0.5
aI1
aI3
aI1
aI0
aI0
aF0.99
a(lp796
I200
aa(lp797
F0.005
aa(lp798
I6800
aaa(lp799
I200
aF0.5
aI2
aI2
aI1
aI0
aI0
aF0.5
a(lp800
I200
aa(lp801
F0.005
aa(lp802
I0
aaa(lp803
I200
aF0.5
aI2
aI3
aI1
aI0
aI0
aF0.75
a(lp804
I200
aa(lp805
F0.005
aa(lp806
I0
aaa(lp807
I200
aF0.5
aI3
aI2
aI1
aI0
aI0
aF0.3333333333333333
a(lp808
I200
aa(lp809
F0.005
aa(lp810
I0
aaa(lp811
I200
aF0.5
aI3
aI3
aI1
aI0
aI0
aF0.5
a(lp812
I200
aa(lp813
F0.005
aa(lp814
I0
aaa(lp815
I200
aF0.5
aI4
aI2
aI1
aI0
aI0
aF0.25
a(lp816
I200
aa(lp817
F0.005
aa(lp818
I0
aaa(lp819
I200
aF0.5
aI4
aI3
aI1
aI0
aI0
aF0.375
a(lp820
I200
aa(lp821
F0.005
aa(lp822
I0
aaa(lp823
I200
aF0.5
aI5
aI2
aI1
aI0
aI0
aF0.2
a(lp824
I200
aa(lp825
F0.005
aa(lp826
I0
aaa(lp827
I200
aF0.5
aI5
aI3
aI1
aI0
aI0
aF0.3
a(lp828
I200
aa(lp829
F0.005
aa(lp830
I0
aaa(lp831
I200
aF0.5
aI6
aI2
aI1
aI0
aI0
aF0.16666666666666666
a(lp832
I200
aa(lp833
F0.005
aa(lp834
I0
aaa(lp835
I200
aF0.5
aI6
aI3
aI1
aI0
aI0
aF0.25
a(lp836
I200
aa(lp837
F0.005
aa(lp838
I0
aaa(lp839
I300
aF0.05
aI1
aI2
aI1
aI0
ag2
(g6
S'\xb8\x1e\x85\xebQ\xb8!@'
p840
tp841
Rp842
aF0.9312222222222222
a(lp843
I200
aI400
aI600
aI800
aI1000
aI1200
aI1400
aI1600
aI1800
aI2000
aI2200
aI2400
aI2600
aI2800
aI3000
aI3200
aa(lp844
F1.0
aF1.0
aF1.0
aF1.0
aF1.0
aF1.0
aF1.0
aF1.0
aF1.0
aF1.0
aF0.9995454545454545
aF0.9970833333333333
aF0.9803846153846154
aF0.9414285714285714
aF0.8863333333333333
aF0.830625
aa(lp845
I0
aI0
aI0
aI0
aI0
aI0
aI0
aI2
aI15
aI75
aI235
aI596
aI1329
aI2490
aI4092
aI6095
aaa(lp846
I300
aF0.05
aI1
aI3
aI1
aI0
ag2
(g6
S'\xc3\xf5(\\\x8f\xc2\x14@'
p847
tp848
Rp849
aF0.8658
a(lp850
I200
aI400
aI600
aI800
aI1000
aI1200
aI1400
aI1600
aI1800
aI2000
aa(lp851
F1.0
aF1.0
aF1.0
aF1.0
aF1.0
aF1.0
aF0.9957142857142857
aF0.945625
aF0.8655555555555555
aF0.7785
aa(lp852
I0
aI0
aI0
aI0
aI3
aI80
aI334
aI1019
aI2263
aI4026
aaa(lp853
I300
aF0.05
aI2
aI2
aI1
aI0
ag2
(g6
S'R\xb8\x1e\x85\xebQ/@'
p854
tp855
Rp856
aF0.8291
a(lp857
I200
aI400
aI600
aI800
aI1000
aI1200
aI1400
aI1600
aI1800
aI2000
aI2200
aI2400
aI2600
aI2800
aI3000
aI3200
aI3400
aI3600
aI3800
aI4000
aI4200
aI4400
aI4600
aI4800
aI5000
aa(lp858
F1.0
aF1.0
aF1.0
aF1.0
aF1.0
aF1.0
aF1.0
aF1.0
aF1.0
aF1.0
aF0.9995454545454545
aF0.9995833333333334
aF0.9996153846153846
aF0.9996428571428572
aF0.9996666666666667
aF0.9996875
aF0.9997058823529412
aF0.9997222222222222
aF0.9978947368421053
aF0.9965
aF0.991904761904762
aF0.9875
aF0.9782608695652174
aF0.9629166666666666
aF0.9396
aa(lp859
I0
aI0
aI0
aI0
aI0
aI0
aI0
aI0
aI0
aI0
aI0
aI0
aI0
aI0
aI0
aI0
aI0
aI0
aI2
aI8
aI13
aI36
aI80
aI179
aI381
aaa(lp860
I300
aF0.05
aI2
aI3
aI1
aI0
ag2
(g6
S'&\xbfX\xf2\x8b%(@'
p861
tp862
Rp863
aF0.9397666666666666
a(lp864
I200
aI400
aI600
aI800
aI1000
aI1200
aI1400
aI1600
aI1800
aI2000
aI2200
aI2400
aI2600
aI2800
aI3000
aI3200
aI3400
aI3600
aI3800
aI4000
aI4200
aI4400
aa(lp865
F1.0
aF1.0
aF1.0
aF1.0
aF1.0
aF1.0
aF1.0
aF1.0
aF1.0
aF1.0
aF1.0
aF1.0
aF1.0
aF0.9996428571428572
aF0.9983333333333333
aF0.9953125
aF0.9829411764705882
aF0.9641666666666666
aF0.9355263157894737
aF0.89975
aF0.8607142857142858
aF0.8231818181818182
aa(lp866
I0
aI0
aI0
aI0
aI0
aI0
aI0
aI0
aI0
aI0
aI1
aI5
aI17
aI61
aI202
aI484
aI1043
aI2015
aI3404
aI5148
aI7228
aI9614
aaa(lp867
I300
aF0.05
aI3
aI2
aI1
aI0
ag2
(g6
S'Y\xf2\x8b%\xbf\x180@'
p868
tp869
Rp870
aF0.5555555555555556
a(lp871
I200
aI400
aI600
aI800
aI1000
aI1200
aI1400
aI1600
aI1800
aI2000
aI2200
aI2400
aI2600
aI2800
aI3000
aI3200
aI3400
aI3600
aI3800
aI4000
aI4200
aI4400
aI4600
aI4800
aI5000
aa(lp872
F1.0
aF1.0
aF1.0
aF1.0
aF1.0
aF1.0
aF1.0
aF1.0
aF1.0
aF1.0
aF1.0
aF1.0
aF1.0
aF1.0
aF1.0
aF1.0
aF1.0
aF0.9994444444444445
aF0.9989473684210526
aF0.998
aF0.9961904761904762
aF0.9931818181818182
aF0.9871739130434782
aF0.9779166666666667
aF0.9658
aa(lp873
I0
aI0
aI0
aI0
aI0
aI0
aI0
aI0
aI0
aI0
aI0
aI0
aI0
aI0
aI0
aI0
aI0
aI0
aI0
aI0
aI0
aI0
aI0
aI0
aI0
aaa(lp874
I300
aF0.05
aI3
aI3
aI1
aI0
ag2
(g6
S')\\\x8f\xc2\xf5\xa80@'
p875
tp876
Rp877
aF0.8281111111111111
a(lp878
I200
aI400
aI600
aI800
aI1000
aI1200
aI1400
aI1600
aI1800
aI2000
aI2200
aI2400
aI2600
aI2800
aI3000
aI3200
aI3400
aI3600
aI3800
aI4000
aI4200
aI4400
aI4600
aI4800
aI5000
aa(lp879
F1.0
aF1.0
aF1.0
aF1.0
aF1.0
aF1.0
aF1.0
aF1.0
aF1.0
aF1.0
aF1.0
aF1.0
aF1.0
aF1.0
aF1.0
aF1.0
aF1.0
aF1.0
aF1.0
aF1.0
aF1.0
aF1.0
aF1.0
aF0.9997916666666666
aF0.9996
aa(lp880
I0
aI0
aI0
aI0
aI0
aI0
aI0
aI0
aI0
aI0
aI0
aI0
aI0
aI0
aI0
aI0
aI0
aI1
aI2
aI3
aI15
aI42
aI93
aI220
aI470
aaa(lp881
I300
aF0.05
aI4
aI2
aI1
aI0
ag2
(g6
S'\x1b\xe8\xb4\x81N\x1b0@'
p882
tp883
Rp884
aF0.4166666666666667
a(lp885
I200
aI400
aI600
aI800
aI1000
aI1200
aI1400
aI1600
aI1800
aI2000
aI2200
aI2400
aI2600
aI2800
aI3000
aI3200
aI3400
aI3600
aI3800
aI4000
aI4200
aI4400
aI4600
aI4800
aI5000
aa(lp886
F1.0
aF1.0
aF1.0
aF1.0
aF1.0
aF1.0
aF1.0
aF1.0
aF1.0
aF1.0
aF1.0
aF1.0
aF1.0
aF1.0
aF1.0
aF1.0
aF1.0
aF0.9988888888888889
aF0.9978947368421053
aF0.997
aF0.9952380952380953
aF0.9925
aF0.9854347826086957
aF0.9779166666666667
aF0.9664
aa(lp887
I0
aI0
aI0
aI0
aI0
aI0
aI0
aI0
aI0
aI0
aI0
aI0
aI0
aI0
aI0
aI0
aI0
aI0
aI0
aI0
aI0
aI0
aI0
aI0
aI0
aaa(lp888
I300
aF0.05
aI4
aI3
aI1
aI0
ag2
(g6
S'\xab\xaa\xaa\xaa\xaa\xaa0@'
p889
tp890
Rp891
aF0.625
a(lp892
I200
aI400
aI600
aI800
aI1000
aI1200
aI1400
aI1600
aI1800
aI2000
aI2200
aI2400
aI2600
aI2800
aI3000
aI3200
aI3400
aI3600
aI3800
aI4000
aI4200
aI4400
aI4600
aI4800
aI5000
aa(lp893
F1.0
aF1.0
aF1.0
aF1.0
aF1.0
aF1.0
aF1.0
aF1.0
aF1.0
aF1.0
aF1.0
aF1.0
aF1.0
aF1.0
aF1.0
aF1.0
aF1.0
aF1.0
aF1.0
aF1.0
aF1.0
aF1.0
aF1.0
aF1.0
aF1.0
aa(lp894
I0
aI0
aI0
aI0
aI0
aI0
aI0
aI0
aI0
aI0
aI0
aI0
aI0
aI0
aI0
aI0
aI0
aI0
aI0
aI0
aI0
aI0
aI0
aI0
aI0
aaa(lp895
I300
aF0.05
aI5
aI2
aI1
aI0
ag2
(g6
S'O\x1b\xe8\xb4\x81\x0e0@'
p896
tp897
Rp898
aF0.3333333333333333
a(lp899
I200
aI400
aI600
aI800
aI1000
aI1200
aI1400
aI1600
aI1800
aI2000
aI2200
aI2400
aI2600
aI2800
aI3000
aI3200
aI3400
aI3600
aI3800
aI4000
aI4200
aI4400
aI4600
aI4800
aI5000
aa(lp900
F1.0
aF1.0
aF1.0
aF1.0
aF1.0
aF1.0
aF1.0
aF1.0
aF1.0
aF1.0
aF1.0
aF1.0
aF1.0
aF1.0
aF1.0
aF1.0
aF0.9997058823529412
aF0.9994444444444445
aF0.998421052631579
aF0.996
aF0.9935714285714285
aF0.9904545454545455
aF0.9841304347826086
aF0.976875
aF0.9634
aa(lp901
I0
aI0
aI0
aI0
aI0
aI0
aI0
aI0
aI0
aI0
aI0
aI0
aI0
aI0
aI0
aI0
aI0
aI0
aI0
aI0
aI0
aI0
aI0
aI0
aI0
aaa(lp902
I300
aF0.05
aI5
aI3
aI1
aI0
ag2
(g6
S'\xab\xaa\xaa\xaa\xaa\xaa0@'
p903
tp904
Rp905
aF0.5
a(lp906
I200
aI400
aI600
aI800
aI1000
aI1200
aI1400
aI1600
aI1800
aI2000
aI2200
aI2400
aI2600
aI2800
aI3000
aI3200
aI3400
aI3600
aI3800
aI4000
aI4200
aI4400
aI4600
aI4800
aI5000
aa(lp907
F1.0
aF1.0
aF1.0
aF1.0
aF1.0
aF1.0
aF1.0
aF1.0
aF1.0
aF1.0
aF1.0
aF1.0
aF1.0
aF1.0
aF1.0
aF1.0
aF1.0
aF1.0
aF1.0
aF1.0
aF1.0
aF1.0
aF1.0
aF1.0
aF1.0
aa(lp908
I0
aI0
aI0
aI0
aI0
aI0
aI0
aI0
aI0
aI0
aI0
aI0
aI0
aI0
aI0
aI0
aI0
aI0
aI0
aI0
aI0
aI0
aI0
aI0
aI0
aaa(lp909
I300
aF0.05
aI6
aI2
aI1
aI0
ag2
(g6
S'\x93_,\xf9\xc5\x120@'
p910
tp911
Rp912
aF0.2777777777777778
a(lp913
I200
aI400
aI600
aI800
aI1000
aI1200
aI1400
aI1600
aI1800
aI2000
aI2200
aI2400
aI2600
aI2800
aI3000
aI3200
aI3400
aI3600
aI3800
aI4000
aI4200
aI4400
aI4600
aI4800
aI5000
aa(lp914
F1.0
aF1.0
aF1.0
aF1.0
aF1.0
aF1.0
aF1.0
aF1.0
aF1.0
aF1.0
aF1.0
aF1.0
aF1.0
aF1.0
aF1.0
aF0.9996875
aF0.9988235294117647
aF0.9988888888888889
aF0.9986842105263158
aF0.997
aF0.9942857142857143
aF0.9902272727272727
aF0.9852173913043478
aF0.9766666666666667
aF0.9644
aa(lp915
I0
aI0
aI0
aI0
aI0
aI0
aI0
aI0
aI0
aI0
aI0
aI0
aI0
aI0
aI0
aI0
aI0
aI0
aI0
aI0
aI0
aI0
aI0
aI0
aI0
aaa(lp916
I300
aF0.05
aI6
aI3
aI1
aI0
ag2
(g6
S'\xab\xaa\xaa\xaa\xaa\xaa0@'
p917
tp918
Rp919
aF0.4166666666666667
a(lp920
I200
aI400
aI600
aI800
aI1000
aI1200
aI1400
aI1600
aI1800
aI2000
aI2200
aI2400
aI2600
aI2800
aI3000
aI3200
aI3400
aI3600
aI3800
aI4000
aI4200
aI4400
aI4600
aI4800
aI5000
aa(lp921
F1.0
aF1.0
aF1.0
aF1.0
aF1.0
aF1.0
aF1.0
aF1.0
aF1.0
aF1.0
aF1.0
aF1.0
aF1.0
aF1.0
aF1.0
aF1.0
aF1.0
aF1.0
aF1.0
aF1.0
aF1.0
aF1.0
aF1.0
aF1.0
aF1.0
aa(lp922
I0
aI0
aI0
aI0
aI0
aI0
aI0
aI0
aI0
aI0
aI0
aI0
aI0
aI0
aI0
aI0
aI0
aI0
aI0
aI0
aI0
aI0
aI0
aI0
aI0
aaa(lp923
I300
aF0.1
aI1
aI2
aI1
aI0
ag2
(g6
S'wwwwww\x07@'
p924
tp925
Rp926
aF0.9111111111111111
a(lp927
I200
aI400
aI600
aI800
aI1000
aI1200
aI1400
aa(lp928
F1.0
aF1.0
aF1.0
aF1.0
aF0.995
aF0.9191666666666667
aF0.6285714285714286
aa(lp929
I0
aI0
aI0
aI0
aI0
aI69
aI1000
aaa(lp930
I300
aF0.1
aI1
aI3
aI1
aI0
ag2
(g6
S'\xde\xdd\xdd\xdd\xdd\xdd\x0b@'
p931
tp932
Rp933
aF0.9754333333333334
a(lp934
I200
aI400
aI600
aI800
aI1000
aI1200
aI1400
aa(lp935
F1.0
aF1.0
aF1.0
aF1.0
aF0.992
aF0.8733333333333333
aF0.7464285714285714
aa(lp936
I0
aI0
aI1
aI174
aI2284
aI7042
aI12737
aaa(lp937
I300
aF0.1
aI2
aI2
aI1
aI0
ag2
(g6
S'\x93_,\xf9\xc5\x92\x0b@'
p938
tp939
Rp940
aF0.4666666666666667
a(lp941
I200
aI400
aI600
aI800
aI1000
aI1200
aI1400
aa(lp942
F1.0
aF1.0
aF1.0
aF1.0
aF0.999
aF0.9533333333333334
aF0.7385714285714285
aa(lp943
I0
aI0
aI0
aI0
aI0
aI0
aI0
aaa(lp944
I300
aF0.1
aI2
aI3
aI1
aI0
ag2
(g6
S'\x11\x11\x11\x11\x11\x11\x1b@'
p945
tp946
Rp947
aF0.9846
a(lp948
I200
aI400
aI600
aI800
aI1000
aI1200
aI1400
aI1600
aI1800
aI2000
aI2200
aI2400
aa(lp949
F1.0
aF1.0
aF1.0
aF1.0
aF1.0
aF1.0
aF1.0
aF1.0
aF1.0
aF0.995
aF0.9236363636363636
aF0.8458333333333333
aa(lp950
I0
aI0
aI0
aI0
aI0
aI0
aI0
aI15
aI525
aI2871
aI7397
aI12924
aaa(lp951
I300
aF0.1
aI3
aI2
aI1
aI0
ag2
(g6
S'\xe8\xb4\x81N\x1b\xe8\x0c@'
p952
tp953
Rp954
aF0.3111111111111111
a(lp955
I200
aI400
aI600
aI800
aI1000
aI1200
aI1400
aa(lp956
F1.0
aF1.0
aF1.0
aF1.0
aF0.997
aF0.965
aF0.7742857142857142
aa(lp957
I0
aI0
aI0
aI0
aI0
aI0
aI0
aaa(lp958
I300
aF0.1
aI3
aI3
aI1
aI0
ag2
(g6
S'`,\xf9\xc5\x92\xdf#@'
p959
tp960
Rp961
aF0.9876222222222222
a(lp962
I200
aI400
aI600
aI800
aI1000
aI1200
aI1400
aI1600
aI1800
aI2000
aI2200
aI2400
aI2600
aI2800
aI3000
aI3200
aI3400
aa(lp963
F1.0
aF1.0
aF1.0
aF1.0
aF1.0
aF1.0
aF1.0
aF1.0
aF1.0
aF1.0
aF1.0
aF1.0
aF1.0
aF1.0
aF0.988
aF0.9325
aF0.8767647058823529
aa(lp964
I0
aI0
aI0
aI0
aI0
aI0
aI0
aI0
aI0
aI0
aI0
aI4
aI80
aI748
aI3261
aI7724
aI13114
aaa(lp965
I300
aF0.1
aI4
aI2
aI1
aI0
ag2
(g6
S'\x07:m\xa0\xd3\x06\x0e@'
p966
tp967
Rp968
aF0.23333333333333334
a(lp969
I200
aI400
aI600
aI800
aI1000
aI1200
aI1400
aa(lp970
F1.0
aF1.0
aF1.0
aF1.0
aF0.998
aF0.9683333333333334
aF0.8042857142857143
aa(lp971
I0
aI0
aI0
aI0
aI0
aI0
aI0
aaa(lp972
I300
aF0.1
aI4
aI3
aI1
aI0
ag2
(g6
S'333333*@'
p973
tp974
Rp975
aF0.98915
a(lp976
I200
aI400
aI600
aI800
aI1000
aI1200
aI1400
aI1600
aI1800
aI2000
aI2200
aI2400
aI2600
aI2800
aI3000
aI3200
aI3400
aI3600
aI3800
aI4000
aI4200
aI4400
aa(lp977
F1.0
aF1.0
aF1.0
aF1.0
aF1.0
aF1.0
aF1.0
aF1.0
aF1.0
aF1.0
aF1.0
aF1.0
aF1.0
aF1.0
aF1.0
aF1.0
aF1.0
aF1.0
aF0.9992105263157894
aF0.9795
aF0.9357142857142857
aF0.8931818181818182
aa(lp978
I0
aI0
aI0
aI0
aI0
aI0
aI0
aI0
aI0
aI0
aI0
aI0
aI0
aI0
aI0
aI0
aI8
aI154
aI1082
aI3716
aI8009
aI13302
aaa(lp979
I300
aF0.1
aI5
aI2
aI1
aI0
ag2
(g6
S'\xecQ\xb8\x1e\x85\xeb\r@'
p980
tp981
Rp982
aF0.18666666666666668
a(lp983
I200
aI400
aI600
aI800
aI1000
aI1200
aI1400
aa(lp984
F1.0
aF1.0
aF1.0
aF1.0
aF0.998
aF0.9675
aF0.8014285714285714
aa(lp985
I0
aI0
aI0
aI0
aI0
aI0
aI0
aaa(lp986
I300
aF0.1
aI5
aI3
aI1
aI0
ag2
(g6
S'H\xe1z\x14\xaeG0@'
p987
tp988
Rp989
aF0.9726666666666667
a(lp990
I200
aI400
aI600
aI800
aI1000
aI1200
aI1400
aI1600
aI1800
aI2000
aI2200
aI2400
aI2600
aI2800
aI3000
aI3200
aI3400
aI3600
aI3800
aI4000
aI4200
aI4400
aI4600
aI4800
aI5000
aa(lp991
F1.0
aF1.0
aF1.0
aF1.0
aF1.0
aF1.0
aF1.0
aF1.0
aF1.0
aF1.0
aF1.0
aF1.0
aF1.0
aF1.0
aF1.0
aF1.0
aF1.0
aF1.0
aF1.0
aF1.0
aF1.0
aF1.0
aF1.0
aF0.9983333333333333
aF0.9768
aa(lp992
I0
aI0
aI0
aI0
aI0
aI0
aI0
aI0
aI0
aI0
aI0
aI0
aI0
aI0
aI0
aI0
aI0
aI0
aI0
aI0
aI3
aI34
aI306
aI1447
aI4100
aaa(lp993
I300
aF0.1
aI6
aI2
aI1
aI0
ag2
(g6
S':m\xa0\xd3\x06:\r@'
p994
tp995
Rp996
aF0.15555555555555556
a(lp997
I200
aI400
aI600
aI800
aI1000
aI1200
aI1400
aa(lp998
F1.0
aF1.0
aF1.0
aF1.0
aF0.996
aF0.9658333333333333
aF0.7828571428571428
aa(lp999
I0
aI0
aI0
aI0
aI0
aI0
aI0
aaa(lp1000
I300
aF0.1
aI6
aI3
aI1
aI0
ag2
(g6
S'\xab\xaa\xaa\xaa\xaa\xaa0@'
p1001
tp1002
Rp1003
aF0.8333277777777778
a(lp1004
I200
aI400
aI600
aI800
aI1000
aI1200
aI1400
aI1600
aI1800
aI2000
aI2200
aI2400
aI2600
aI2800
aI3000
aI3200
aI3400
aI3600
aI3800
aI4000
aI4200
aI4400
aI4600
aI4800
aI5000
aa(lp1005
F1.0
aF1.0
aF1.0
aF1.0
aF1.0
aF1.0
aF1.0
aF1.0
aF1.0
aF1.0
aF1.0
aF1.0
aF1.0
aF1.0
aF1.0
aF1.0
aF1.0
aF1.0
aF1.0
aF1.0
aF1.0
aF1.0
aF1.0
aF1.0
aF1.0
aa(lp1006
I0
aI0
aI0
aI0
aI0
aI0
aI0
aI0
aI0
aI0
aI0
aI0
aI0
aI0
aI0
aI0
aI0
aI0
aI0
aI0
aI0
aI0
aI0
aI0
aI1
aaa(lp1007
I300
aF0.15
aI1
aI2
aI1
aI0
ag2
(g6
S'Y\xf2\x8b%\xbfX\xe2?'
p1008
tp1009
Rp1010
aF0.6
a(lp1011
I200
aI400
aI600
aa(lp1012
F1.0
aF0.99
aF0.2866666666666667
aa(lp1013
I0
aI0
aI0
aaa(lp1014
I300
aF0.15
aI1
aI3
aI1
aI0
ag2
(g6
S'`,\xf9\xc5\x92_\x02@'
p1015
tp1016
Rp1017
aF0.9884
a(lp1018
I200
aI400
aI600
aI800
aI1000
aa(lp1019
F1.0
aF1.0
aF1.0
aF0.86125
aF0.689
aa(lp1020
I0
aI0
aI499
aI6622
aI15348
aaa(lp1021
I300
aF0.15
aI2
aI2
aI1
aI0
ag2
(g6
S'\x03\x9d6\xd0i\x03\xed?'
p1022
tp1023
Rp1024
aF0.3
a(lp1025
I200
aI400
aI600
aa(lp1026
F1.0
aF1.0
aF0.4533333333333333
aa(lp1027
I0
aI0
aI0
aaa(lp1028
I300
aF0.15
aI2
aI3
aI1
aI0
ag2
(g6
S'\x89\x88\x88\x88\x88\x88\x11@'
p1029
tp1030
Rp1031
aF0.9917166666666667
a(lp1032
I200
aI400
aI600
aI800
aI1000
aI1200
aI1400
aI1600
aa(lp1033
F1.0
aF1.0
aF1.0
aF1.0
aF1.0
aF1.0
aF0.9378571428571428
aF0.821875
aa(lp1034
I0
aI0
aI0
aI0
aI1
aI300
aI4370
aI12497
aaa(lp1035
I300
aF0.15
aI3
aI2
aI1
aI0
ag2
(g6
S'\x0et\xda@\xa7\r\xf0?'
p1036
tp1037
Rp1038
aF0.2
a(lp1039
I200
aI400
aI600
aa(lp1040
F1.0
aF0.9975
aF0.5016666666666667
aa(lp1041
I0
aI0
aI0
aaa(lp1042
I300
aF0.15
aI3
aI3
aI1
aI0
ag2
(g6
S'\x8f\xc2\xf5(\\\x8f\x19@'
p1043
tp1044
Rp1045
aF0.9915888888888889
a(lp1046
I200
aI400
aI600
aI800
aI1000
aI1200
aI1400
aI1600
aI1800
aI2000
aI2200
aa(lp1047
F1.0
aF1.0
aF1.0
aF1.0
aF1.0
aF1.0
aF1.0
aF1.0
aF1.0
aF0.9615
aF0.8713636363636363
aa(lp1048
I0
aI0
aI0
aI0
aI0
aI0
aI0
aI0
aI163
aI2725
aI9757
aaa(lp1049
I300
aF0.15
aI4
aI2
aI1
aI0
ag2
(g6
S'wwwwww\xef?'
p1050
tp1051
Rp1052
aF0.15
a(lp1053
I200
aI400
aI600
aa(lp1054
F1.0
aF0.995
aF0.49166666666666664
aa(lp1055
I0
aI0
aI0
aaa(lp1056
I300
aF0.15
aI4
aI3
aI1
aI0
ag2
(g6
S'\xa4p=\n\xd7\xa3 @'
p1057
tp1058
Rp1059
aF0.988975
a(lp1060
I200
aI400
aI600
aI800
aI1000
aI1200
aI1400
aI1600
aI1800
aI2000
aI2200
aI2400
aI2600
aI2800
aa(lp1061
F1.0
aF1.0
aF1.0
aF1.0
aF1.0
aF1.0
aF1.0
aF1.0
aF1.0
aF1.0
aF1.0
aF0.9983333333333333
aF0.9669230769230769
aF0.8914285714285715
aa(lp1062
I0
aI0
aI0
aI0
aI0
aI0
aI0
aI0
aI0
aI0
aI1
aI88
aI1683
aI7323
aaa(lp1063
I300
aF0.15
aI5
aI2
aI1
aI0
ag2
(g6
S'\x93_,\xf9\xc5\x92\xef?'
p1064
tp1065
Rp1066
aF0.12
a(lp1067
I200
aI400
aI600
aa(lp1068
F1.0
aF0.9925
aF0.49333333333333335
aa(lp1069
I0
aI0
aI0
aaa(lp1070
I300
aF0.15
aI5
aI3
aI1
aI0
ag2
(g6
S'\x0et\xda@\xa7\x8d!@'
p1071
tp1072
Rp1073
aF0.9535666666666667
a(lp1074
I200
aI400
aI600
aI800
aI1000
aI1200
aI1400
aI1600
aI1800
aI2000
aI2200
aI2400
aI2600
aI2800
aI3000
aI3200
aa(lp1075
F1.0
aF1.0
aF1.0
aF1.0
aF1.0
aF1.0
aF1.0
aF1.0
aF1.0
aF1.0
aF0.9995454545454545
aF0.9995833333333334
aF0.9953846153846154
aF0.9792857142857143
aF0.9303333333333333
aF0.8228125
aa(lp1076
I0
aI0
aI0
aI0
aI0
aI0
aI0
aI0
aI0
aI0
aI0
aI0
aI0
aI0
aI55
aI965
aaa(lp1077
I300
aF0.15
aI6
aI2
aI1
aI0
ag2
(g6
S'\xd4\x06:m\xa0\xd3\xee?'
p1078
tp1079
Rp1080
aF0.1
a(lp1081
I200
aI400
aI600
aa(lp1082
F1.0
aF0.9975
aF0.4816666666666667
aa(lp1083
I0
aI0
aI0
aaa(lp1084
I300
aF0.15
aI6
aI3
aI1
aI0
ag2
(g6
S'&\xbfX\xf2\x8b%"@'
p1085
tp1086
Rp1087
aF0.8
a(lp1088
I200
aI400
aI600
aI800
aI1000
aI1200
aI1400
aI1600
aI1800
aI2000
aI2200
aI2400
aI2600
aI2800
aI3000
aI3200
aa(lp1089
F1.0
aF1.0
aF1.0
aF1.0
aF1.0
aF1.0
aF1.0
aF1.0
aF1.0
aF1.0
aF0.9995454545454545
aF0.9995833333333334
aF0.9969230769230769
aF0.9817857142857143
aF0.941
aF0.850625
aa(lp1090
I0
aI0
aI0
aI0
aI0
aI0
aI0
aI0
aI0
aI0
aI0
aI0
aI0
aI0
aI0
aI0
aaa(lp1091
I300
aF0.2
aI1
aI2
aI1
aI0
aI0
aF0.5333333333333333
a(lp1092
I200
aI400
aa(lp1093
F0.995
aF0.015
aa(lp1094
I0
aI0
aaa(lp1095
I300
aF0.2
aI1
aI3
aI1
aI0
ag2
(g6
S'Z\xf2\x8b%\xbfX\xfa?'
p1096
tp1097
Rp1098
aF0.9925
a(lp1099
I200
aI400
aI600
aI800
aa(lp1100
F1.0
aF1.0
aF0.825
aF0.6175
aa(lp1101
I0
aI23
aI6408
aI18225
aaa(lp1102
I300
aF0.2
aI2
aI2
aI1
aI0
aI0
aF0.26666666666666666
a(lp1103
I200
aI400
aa(lp1104
F1.0
aF0.035
aa(lp1105
I0
aI0
aaa(lp1106
I300
aF0.2
aI2
aI3
aI1
aI0
ag2
(g6
S'`,\xf9\xc5\x92_\x08@'
p1107
tp1108
Rp1109
aF0.9947333333333334
a(lp1110
I200
aI400
aI600
aI800
aI1000
aI1200
aa(lp1111
F1.0
aF1.0
aF1.0
aF1.0
aF0.925
aF0.7616666666666667
aa(lp1112
I0
aI0
aI0
aI3
aI1964
aI12316
aaa(lp1113
I300
aF0.2
aI3
aI2
aI1
aI0
aI0
aF0.17777777777777778
a(lp1114
I200
aI400
aa(lp1115
F1.0
aF0.03
aa(lp1116
I0
aI0
aaa(lp1117
I300
aF0.2
aI3
aI3
aI1
aI0
ag2
(g6
S'ffffff\n@'
p1118
tp1119
Rp1120
aF0.8
a(lp1121
I200
aI400
aI600
aI800
aI1000
aI1200
aa(lp1122
F1.0
aF1.0
aF1.0
aF0.99875
aF0.991
aF0.825
aa(lp1123
I0
aI0
aI0
aI0
aI0
aI0
aaa(lp1124
I300
aF0.2
aI4
aI2
aI1
aI0
aI0
aF0.13333333333333333
a(lp1125
I200
aI400
aa(lp1126
F0.995
aF0.035
aa(lp1127
I0
aI0
aaa(lp1128
I300
aF0.2
aI4
aI3
aI1
aI0
ag2
(g6
S'333333\xfb?'
p1129
tp1130
Rp1131
aF0.7
a(lp1132
I200
aI400
aI600
aI800
aI1000
aI1200
aI1400
aa(lp1133
F1.0
aF1.0
aF1.0
aF1.0
aF0.996
aF0.8525
aF0.36428571428571427
aa(lp1134
I0
aI0
aI0
aI0
aI0
aI0
aI0
aaa(lp1135
I300
aF0.2
aI5
aI2
aI1
aI0
aI0
aF0.10666666666666667
a(lp1136
I200
aI400
aa(lp1137
F0.995
aF0.04
aa(lp1138
I0
aI0
aaa(lp1139
I300
aF0.2
aI5
aI3
aI1
aI0
ag2
(g6
S'\x14\xaeG\xe1z\x14\xfe?'
p1140
tp1141
Rp1142
aF0.56
a(lp1143
I200
aI400
aI600
aI800
aI1000
aI1200
aI1400
aa(lp1144
F1.0
aF1.0
aF1.0
aF1.0
aF0.992
aF0.835
aF0.40285714285714286
aa(lp1145
I0
aI0
aI0
aI0
aI0
aI0
aI0
aaa(lp1146
I300
aF0.2
aI6
aI2
aI1
aI0
aI0
aF0.08888888888888889
a(lp1147
I200
aI400
aa(lp1148
F1.0
aF0.0225
aa(lp1149
I0
aI0
aaa(lp1150
I300
aF0.2
aI6
aI3
aI1
aI0
ag2
(g6
S'0\x96\xfcb\xc9/\x00@'
p1151
tp1152
Rp1153
aF0.4666666666666667
a(lp1154
I200
aI400
aI600
aI800
aI1000
aI1200
aI1400
aa(lp1155
F1.0
aF1.0
aF1.0
aF1.0
aF0.996
aF0.8825
aF0.43357142857142855
aa(lp1156
I0
aI0
aI0
aI0
aI0
aI0
aI0
aaa(lp1157
I300
aF0.3
aI1
aI2
aI1
aI0
aI0
aF0.4
a(lp1158
I200
aa(lp1159
F0.005
aa(lp1160
I0
aaa(lp1161
I300
aF0.3
aI1
aI3
aI1
aI0
ag2
(g6
S'\xda@\xa7\rt\xda\xd0?'
p1162
tp1163
Rp1164
aF0.9923666666666666
a(lp1165
I200
aI400
aa(lp1166
F1.0
aF0.1975
aa(lp1167
I0
aI6229
aaa(lp1168
I300
aF0.3
aI2
aI2
aI1
aI0
aI0
aF0.2
a(lp1169
I200
aa(lp1170
F0.005
aa(lp1171
I0
aaa(lp1172
I300
aF0.3
aI2
aI3
aI1
aI0
aI0
aF0.6
a(lp1173
I200
aI400
aa(lp1174
F1.0
aF0.05
aa(lp1175
I0
aI0
aaa(lp1176
I300
aF0.3
aI3
aI2
aI1
aI0
aI0
aF0.13333333333333333
a(lp1177
I200
aa(lp1178
F0.005
aa(lp1179
I0
aaa(lp1180
I300
aF0.3
aI3
aI3
aI1
aI0
aI0
aF0.4
a(lp1181
I200
aI400
aa(lp1182
F1.0
aF0.0775
aa(lp1183
I0
aI0
aaa(lp1184
I300
aF0.3
aI4
aI2
aI1
aI0
aI0
aF0.1
a(lp1185
I200
aa(lp1186
F0.005
aa(lp1187
I0
aaa(lp1188
I300
aF0.3
aI4
aI3
aI1
aI0
ag2
(g6
S'\xa0\xd3\x06:m\xa0\xc3?'
p1189
tp1190
Rp1191
aF0.3
a(lp1192
I200
aI400
aa(lp1193
F1.0
aF0.115
aa(lp1194
I0
aI0
aaa(lp1195
I300
aF0.3
aI5
aI2
aI1
aI0
aI0
aF0.08
a(lp1196
I200
aa(lp1197
F0.005
aa(lp1198
I0
aaa(lp1199
I300
aF0.3
aI5
aI3
aI1
aI0
aI0
aF0.24
a(lp1200
I200
aI400
aa(lp1201
F1.0
aF0.08
aa(lp1202
I0
aI0
aaa(lp1203
I300
aF0.3
aI6
aI2
aI1
aI0
aI0
aF0.06666666666666667
a(lp1204
I200
aa(lp1205
F0.01
aa(lp1206
I0
aaa(lp1207
I300
aF0.3
aI6
aI3
aI1
aI0
aI0
aF0.2
a(lp1208
I200
aI400
aa(lp1209
F1.0
aF0.0875
aa(lp1210
I0
aI0
aaa(lp1211
I300
aF0.5
aI1
aI2
aI1
aI0
aI0
aF0.6666666666666666
a(lp1212
I200
aa(lp1213
F0.005
aa(lp1214
I0
aaa(lp1215
I300
aF0.5
aI1
aI3
aI1
aI0
aI0
aF0.9699333333333333
a(lp1216
I200
aa(lp1217
F0.005
aa(lp1218
I902
aaa(lp1219
I300
aF0.5
aI2
aI2
aI1
aI0
aI0
aF0.3333333333333333
a(lp1220
I200
aa(lp1221
F0.005
aa(lp1222
I0
aaa(lp1223
I300
aF0.5
aI2
aI3
aI1
aI0
aI0
aF0.5
a(lp1224
I200
aa(lp1225
F0.005
aa(lp1226
I0
aaa(lp1227
I300
aF0.5
aI3
aI2
aI1
aI0
aI0
aF0.2222222222222222
a(lp1228
I200
aa(lp1229
F0.005
aa(lp1230
I0
aaa(lp1231
I300
aF0.5
aI3
aI3
aI1
aI0
aI0
aF0.3333333333333333
a(lp1232
I200
aa(lp1233
F0.005
aa(lp1234
I0
aaa(lp1235
I300
aF0.5
aI4
aI2
aI1
aI0
aI0
aF0.16666666666666666
a(lp1236
I200
aa(lp1237
F0.005
aa(lp1238
I0
aaa(lp1239
I300
aF0.5
aI4
aI3
aI1
aI0
aI0
aF0.25
a(lp1240
I200
aa(lp1241
F0.005
aa(lp1242
I0
aaa(lp1243
I300
aF0.5
aI5
aI2
aI1
aI0
aI0
aF0.13333333333333333
a(lp1244
I200
aa(lp1245
F0.005
aa(lp1246
I0
aaa(lp1247
I300
aF0.5
aI5
aI3
aI1
aI0
aI0
aF0.2
a(lp1248
I200
aa(lp1249
F0.005
aa(lp1250
I0
aaa(lp1251
I300
aF0.5
aI6
aI2
aI1
aI0
aI0
aF0.1111111111111111
a(lp1252
I200
aa(lp1253
F0.005
aa(lp1254
I0
aaa(lp1255
I300
aF0.5
aI6
aI3
aI1
aI0
aI0
aF0.16666666666666666
a(lp1256
I200
aa(lp1257
F0.005
aa(lp1258
I0
aaa(lp1259
I400
aF0.05
aI1
aI2
aI1
aI0
ag2
(g6
S'=\n\xd7\xa3p\x1d"@'
p1260
tp1261
Rp1262
aF0.94665
a(lp1263
I200
aI400
aI600
aI800
aI1000
aI1200
aI1400
aI1600
aI1800
aI2000
aI2200
aI2400
aI2600
aI2800
aI3000
aI3200
aI3400
aI3600
aI3800
aI4000
aI4200
aa(lp1264
F1.0
aF1.0
aF1.0
aF1.0
aF1.0
aF1.0
aF1.0
aF1.0
aF1.0
aF1.0
aF1.0
aF1.0
aF1.0
aF1.0
aF1.0
aF0.999375
aF0.9973529411764706
aF0.9877777777777778
aF0.9515789473684211
aF0.90675
aF0.8626190476190476
aa(lp1265
I0
aI0
aI0
aI0
aI0
aI0
aI0
aI0
aI0
aI1
aI1
aI2
aI10
aI48
aI173
aI427
aI954
aI1954
aI3527
aI5657
aI8268
aaa(lp1266
I400
aF0.05
aI1
aI3
aI1
aI0
ag2
(g6
S'33333s\x16@'
p1267
tp1268
Rp1269
aF0.91155
a(lp1270
I200
aI400
aI600
aI800
aI1000
aI1200
aI1400
aI1600
aI1800
aI2000
aI2200
aI2400
aI2600
aI2800
aa(lp1271
F1.0
aF1.0
aF1.0
aF1.0
aF1.0
aF1.0
aF1.0
aF1.0
aF0.9994444444444445
aF0.9975
aF0.9736363636363636
aF0.925
aF0.8615384615384616
aF0.8017857142857143
aa(lp1272
I0
aI0
aI0
aI0
aI0
aI0
aI3
aI21
aI116
aI418
aI1189
aI2566
aI4697
aI7384
aaa(lp1273
I400
aF0.05
aI2
aI2
aI1
aI0
ag2
(g6
S'\xf6(\\\x8f\xc2\xf5(@'
p1274
tp1275
Rp1276
aF0.625
a(lp1277
I200
aI400
aI600
aI800
aI1000
aI1200
aI1400
aI1600
aI1800
aI2000
aI2200
aI2400
aI2600
aI2800
aI3000
aI3200
aI3400
aI3600
aI3800
aI4000
aI4200
aI4400
aI4600
aI4800
aI5000
aa(lp1278
F1.0
aF1.0
aF1.0
aF1.0
aF1.0
aF1.0
aF1.0
aF1.0
aF1.0
aF1.0
aF1.0
aF1.0
aF1.0
aF1.0
aF1.0
aF1.0
aF1.0
aF1.0
aF0.9997368421052631
aF0.99975
aF0.9997619047619047
aF0.9997727272727273
aF0.9997826086956522
aF0.9991666666666666
aF0.9984
aa(lp1279
I0
aI0
aI0
aI0
aI0
aI0
aI0
aI0
aI0
aI0
aI0
aI0
aI0
aI0
aI0
aI0
aI0
aI0
aI0
aI0
aI0
aI0
aI0
aI0
aI0
aaa(lp1280
I400
aF0.05
aI2
aI3
aI1
aI0
ag2
(g6
S'R\xb8\x1e\x85\xeb\xb1(@'
p1281
tp1282
Rp1283
aF0.906215625
a(lp1284
I200
aI400
aI600
aI800
aI1000
aI1200
aI1400
aI1600
aI1800
aI2000
aI2200
aI2400
aI2600
aI2800
aI3000
aI3200
aI3400
aI3600
aI3800
aI4000
aI4200
aI4400
aI4600
aI4800
aI5000
aa(lp1285
F1.0
aF1.0
aF1.0
aF1.0
aF1.0
aF1.0
aF1.0
aF1.0
aF1.0
aF1.0
aF1.0
aF1.0
aF1.0
aF1.0
aF1.0
aF1.0
aF1.0
aF1.0
aF1.0
aF1.0
aF0.9997619047619047
aF0.9995454545454545
aF0.9984782608695653
aF0.9960416666666667
aF0.9878
aa(lp1286
I0
aI0
aI0
aI0
aI0
aI0
aI0
aI0
aI0
aI0
aI0
aI0
aI0
aI0
aI0
aI0
aI1
aI5
aI16
aI50
aI159
aI442
aI997
aI1937
aI3337
aaa(lp1287
I400
aF0.05
aI3
aI2
aI1
aI0
ag2
(g6
S'\xf6(\\\x8f\xc2\xf5(@'
p1288
tp1289
Rp1290
aF0.4166666666666667
a(lp1291
I200
aI400
aI600
aI800
aI1000
aI1200
aI1400
aI1600
aI1800
aI2000
aI2200
aI2400
aI2600
aI2800
aI3000
aI3200
aI3400
aI3600
aI3800
aI4000
aI4200
aI4400
aI4600
aI4800
aI5000
aa(lp1292
F1.0
aF1.0
aF1.0
aF1.0
aF1.0
aF1.0
aF1.0
aF1.0
aF1.0
aF1.0
aF1.0
aF1.0
aF1.0
aF1.0
aF1.0
aF1.0
aF1.0
aF1.0
aF1.0
aF1.0
aF1.0
aF1.0
aF0.9995652173913043
aF0.9989583333333333
aF0.9984
aa(lp1293
I0
aI0
aI0
aI0
aI0
aI0
aI0
aI0
aI0
aI0
aI0
aI0
aI0
aI0
aI0
aI0
aI0
aI0
aI0
aI0
aI0
aI0
aI0
aI0
aI0
aaa(lp1294
I400
aF0.05
aI3
aI3
aI1
aI0
ag2
(g6
S'\x00\x00\x00\x00\x00\x00)@'
p1295
tp1296
Rp1297
aF0.625
a(lp1298
I200
aI400
aI600
aI800
aI1000
aI1200
aI1400
aI1600
aI1800
aI2000
aI2200
aI2400
aI2600
aI2800
aI3000
aI3200
aI3400
aI3600
aI3800
aI4000
aI4200
aI4400
aI4600
aI4800
aI5000
aa(lp1299
F1.0
aF1.0
aF1.0
aF1.0
aF1.0
aF1.0
aF1.0
aF1.0
aF1.0
aF1.0
aF1.0
aF1.0
aF1.0
aF1.0
aF1.0
aF1.0
aF1.0
aF1.0
aF1.0
aF1.0
aF1.0
aF1.0
aF1.0
aF1.0
aF1.0
aa(lp1300
I0
aI0
aI0
aI0
aI0
aI0
aI0
aI0
aI0
aI0
aI0
aI0
aI0
aI0
aI0
aI0
aI0
aI0
aI0
aI0
aI0
aI0
aI0
aI0
aI0
aaa(lp1301
I400
aF0.05
aI4
aI2
aI1
aI0
ag2
(g6
S'\xb8\x1e\x85\xebQ\xf8(@'
p1302
tp1303
Rp1304
aF0.3125
a(lp1305
I200
aI400
aI600
aI800
aI1000
aI1200
aI1400
aI1600
aI1800
aI2000
aI2200
aI2400
aI2600
aI2800
aI3000
aI3200
aI3400
aI3600
aI3800
aI4000
aI4200
aI4400
aI4600
aI4800
aI5000
aa(lp1306
F1.0
aF1.0
aF1.0
aF1.0
aF1.0
aF1.0
aF1.0
aF1.0
aF1.0
aF1.0
aF1.0
aF1.0
aF1.0
aF1.0
aF1.0
aF1.0
aF1.0
aF1.0
aF1.0
aF1.0
aF1.0
aF0.9997727272727273
aF0.9997826086956522
aF0.999375
aF0.9988
aa(lp1307
I0
aI0
aI0
aI0
aI0
aI0
aI0
aI0
aI0
aI0
aI0
aI0
aI0
aI0
aI0
aI0
aI0
aI0
aI0
aI0
aI0
aI0
aI0
aI0
aI0
aaa(lp1308
I400
aF0.05
aI4
aI3
aI1
aI0
ag2
(g6
S'\x00\x00\x00\x00\x00\x00)@'
p1309
tp1310
Rp1311
aF0.46875
a(lp1312
I200
aI400
aI600
aI800
aI1000
aI1200
aI1400
aI1600
aI1800
aI2000
aI2200
aI2400
aI2600
aI2800
aI3000
aI3200
aI3400
aI3600
aI3800
aI4000
aI4200
aI4400
aI4600
aI4800
aI5000
aa(lp1313
F1.0
aF1.0
aF1.0
aF1.0
aF1.0
aF1.0
aF1.0
aF1.0
aF1.0
aF1.0
aF1.0
aF1.0
aF1.0
aF1.0
aF1.0
aF1.0
aF1.0
aF1.0
aF1.0
aF1.0
aF1.0
aF1.0
aF1.0
aF1.0
aF1.0
aa(lp1314
I0
aI0
aI0
aI0
aI0
aI0
aI0
aI0
aI0
aI0
aI0
aI0
aI0
aI0
aI0
aI0
aI0
aI0
aI0
aI0
aI0
aI0
aI0
aI0
aI0
aaa(lp1315
I400
aF0.05
aI5
aI2
aI1
aI0
ag2
(g6
S'\x14\xaeG\xe1z\xf4(@'
p1316
tp1317
Rp1318
aF0.25
a(lp1319
I200
aI400
aI600
aI800
aI1000
aI1200
aI1400
aI1600
aI1800
aI2000
aI2200
aI2400
aI2600
aI2800
aI3000
aI3200
aI3400
aI3600
aI3800
aI4000
aI4200
aI4400
aI4600
aI4800
aI5000
aa(lp1320
F1.0
aF1.0
aF1.0
aF1.0
aF1.0
aF1.0
aF1.0
aF1.0
aF1.0
aF1.0
aF1.0
aF1.0
aF1.0
aF1.0
aF1.0
aF1.0
aF1.0
aF1.0
aF1.0
aF1.0
aF1.0
aF0.9997727272727273
aF0.9997826086956522
aF0.999375
aF0.9982
aa(lp1321
I0
aI0
aI0
aI0
aI0
aI0
aI0
aI0
aI0
aI0
aI0
aI0
aI0
aI0
aI0
aI0
aI0
aI0
aI0
aI0
aI0
aI0
aI0
aI0
aI0
aaa(lp1322
I400
aF0.05
aI5
aI3
aI1
aI0
ag2
(g6
S'\x00\x00\x00\x00\x00\x00)@'
p1323
tp1324
Rp1325
aF0.375
a(lp1326
I200
aI400
aI600
aI800
aI1000
aI1200
aI1400
aI1600
aI1800
aI2000
aI2200
aI2400
aI2600
aI2800
aI3000
aI3200
aI3400
aI3600
aI3800
aI4000
aI4200
aI4400
aI4600
aI4800
aI5000
aa(lp1327
F1.0
aF1.0
aF1.0
aF1.0
aF1.0
aF1.0
aF1.0
aF1.0
aF1.0
aF1.0
aF1.0
aF1.0
aF1.0
aF1.0
aF1.0
aF1.0
aF1.0
aF1.0
aF1.0
aF1.0
aF1.0
aF1.0
aF1.0
aF1.0
aF1.0
aa(lp1328
I0
aI0
aI0
aI0
aI0
aI0
aI0
aI0
aI0
aI0
aI0
aI0
aI0
aI0
aI0
aI0
aI0
aI0
aI0
aI0
aI0
aI0
aI0
aI0
aI0
aaa(lp1329
I400
aF0.05
aI6
aI2
aI1
aI0
ag2
(g6
S'{\x14\xaeG\xe1\xfa(@'
p1330
tp1331
Rp1332
aF0.20833333333333334
a(lp1333
I200
aI400
aI600
aI800
aI1000
aI1200
aI1400
aI1600
aI1800
aI2000
aI2200
aI2400
aI2600
aI2800
aI3000
aI3200
aI3400
aI3600
aI3800
aI4000
aI4200
aI4400
aI4600
aI4800
aI5000
aa(lp1334
F1.0
aF1.0
aF1.0
aF1.0
aF1.0
aF1.0
aF1.0
aF1.0
aF1.0
aF1.0
aF1.0
aF1.0
aF1.0
aF1.0
aF1.0
aF1.0
aF1.0
aF1.0
aF1.0
aF1.0
aF1.0
aF1.0
aF1.0
aF0.9997916666666666
aF0.9992
aa(lp1335
I0
aI0
aI0
aI0
aI0
aI0
aI0
aI0
aI0
aI0
aI0
aI0
aI0
aI0
aI0
aI0
aI0
aI0
aI0
aI0
aI0
aI0
aI0
aI0
aI0
aaa(lp1336
I400
aF0.05
aI6
aI3
aI1
aI0
ag2
(g6
S'\x00\x00\x00\x00\x00\x00)@'
p1337
tp1338
Rp1339
aF0.3125
a(lp1340
I200
aI400
aI600
aI800
aI1000
aI1200
aI1400
aI1600
aI1800
aI2000
aI2200
aI2400
aI2600
aI2800
aI3000
aI3200
aI3400
aI3600
aI3800
aI4000
aI4200
aI4400
aI4600
aI4800
aI5000
aa(lp1341
F1.0
aF1.0
aF1.0
aF1.0
aF1.0
aF1.0
aF1.0
aF1.0
aF1.0
aF1.0
aF1.0
aF1.0
aF1.0
aF1.0
aF1.0
aF1.0
aF1.0
aF1.0
aF1.0
aF1.0
aF1.0
aF1.0
aF1.0
aF1.0
aF1.0
aa(lp1342
I0
aI0
aI0
aI0
aI0
aI0
aI0
aI0
aI0
aI0
aI0
aI0
aI0
aI0
aI0
aI0
aI0
aI0
aI0
aI0
aI0
aI0
aI0
aI0
aI0
aaa(lp1343
I400
aF0.1
aI1
aI2
aI1
aI0
ag2
(g6
S'\xcd\xcc\xcc\xcc\xccL\x05@'
p1344
tp1345
Rp1346
aF0.799625
a(lp1347
I200
aI400
aI600
aI800
aI1000
aI1200
aI1400
aI1600
aa(lp1348
F1.0
aF1.0
aF1.0
aF1.0
aF1.0
aF0.9916666666666667
aF0.9378571428571428
aF0.665625
aa(lp1349
I0
aI0
aI0
aI0
aI0
aI0
aI0
aI30
aaa(lp1350
I400
aF0.1
aI1
aI3
aI1
aI0
ag2
(g6
S'\\\x8f\xc2\xf5(\\\x0c@'
p1351
tp1352
Rp1353
aF0.98385
a(lp1354
I200
aI400
aI600
aI800
aI1000
aI1200
aI1400
aI1600
aI1800
aa(lp1355
F1.0
aF1.0
aF1.0
aF1.0
aF1.0
aF1.0
aF0.9928571428571429
aF0.8875
aF0.7877777777777778
aa(lp1356
I0
aI0
aI0
aI0
aI16
aI852
aI5039
aI11884
aI19528
aaa(lp1357
I400
aF0.1
aI2
aI2
aI1
aI0
ag2
(g6
S'=\n\xd7\xa3p\xbd\t@'
p1358
tp1359
Rp1360
aF0.4
a(lp1361
I200
aI400
aI600
aI800
aI1000
aI1200
aI1400
aI1600
aa(lp1362
F1.0
aF1.0
aF1.0
aF1.0
aF1.0
aF0.9983333333333333
aF0.9735714285714285
aF0.804375
aa(lp1363
I0
aI0
aI0
aI0
aI0
aI0
aI0
aI0
aaa(lp1364
I400
aF0.1
aI2
aI3
aI1
aI0
ag2
(g6
S'\xaeG\xe1z\x14.\x1b@'
p1365
tp1366
Rp1367
aF0.986540625
a(lp1368
I200
aI400
aI600
aI800
aI1000
aI1200
aI1400
aI1600
aI1800
aI2000
aI2200
aI2400
aI2600
aI2800
aI3000
aa(lp1369
F1.0
aF1.0
aF1.0
aF1.0
aF1.0
aF1.0
aF1.0
aF1.0
aF1.0
aF1.0
aF1.0
aF1.0
aF1.0
aF0.9689285714285715
aF0.906
aa(lp1370
I0
aI0
aI0
aI0
aI0
aI0
aI0
aI0
aI0
aI0
aI35
aI493
aI2753
aI7840
aI14769
aaa(lp1371
I400
aF0.1
aI3
aI2
aI1
aI0
ag2
(g6
S'333333\x0b@'
p1372
tp1373
Rp1374
aF0.26666666666666666
a(lp1375
I200
aI400
aI600
aI800
aI1000
aI1200
aI1400
aI1600
aa(lp1376
F1.0
aF1.0
aF1.0
aF1.0
aF1.0
aF0.9991666666666666
aF0.9807142857142858
aF0.85
aa(lp1377
I0
aI0
aI0
aI0
aI0
aI0
aI0
aI0
aaa(lp1378
I400
aF0.1
aI3
aI3
aI1
aI0
ag2
(g6
S'\\\x8f\xc2\xf5(\xfc#@'
p1379
tp1380
Rp1381
aF0.99023125
a(lp1382
I200
aI400
aI600
aI800
aI1000
aI1200
aI1400
aI1600
aI1800
aI2000
aI2200
aI2400
aI2600
aI2800
aI3000
aI3200
aI3400
aI3600
aI3800
aI4000
aI4200
aI4400
aa(lp1383
F1.0
aF1.0
aF1.0
aF1.0
aF1.0
aF1.0
aF1.0
aF1.0
aF1.0
aF1.0
aF1.0
aF1.0
aF1.0
aF1.0
aF1.0
aF1.0
aF1.0
aF1.0
aF1.0
aF0.99175
aF0.9519047619047619
aF0.9084090909090909
aa(lp1384
I0
aI0
aI0
aI0
aI0
aI0
aI0
aI0
aI0
aI0
aI0
aI0
aI0
aI0
aI0
aI0
aI19
aI274
aI1543
aI4812
aI10475
aI17563
aaa(lp1385
I400
aF0.1
aI4
aI2
aI1
aI0
ag2
(g6
S'\x9a\x99\x99\x99\x99\x19\x0b@'
p1386
tp1387
Rp1388
aF0.2
a(lp1389
I200
aI400
aI600
aI800
aI1000
aI1200
aI1400
aI1600
aa(lp1390
F1.0
aF1.0
aF1.0
aF1.0
aF1.0
aF0.9991666666666666
aF0.9728571428571429
aF0.846875
aa(lp1391
I0
aI0
aI0
aI0
aI0
aI0
aI0
aI0
aaa(lp1392
I400
aF0.1
aI4
aI3
aI1
aI0
ag2
(g6
S'\x00\x00\x00\x00\x00\x00)@'
p1393
tp1394
Rp1395
aF0.933984375
a(lp1396
I200
aI400
aI600
aI800
aI1000
aI1200
aI1400
aI1600
aI1800
aI2000
aI2200
aI2400
aI2600
aI2800
aI3000
aI3200
aI3400
aI3600
aI3800
aI4000
aI4200
aI4400
aI4600
aI4800
aI5000
aa(lp1397
F1.0
aF1.0
aF1.0
aF1.0
aF1.0
aF1.0
aF1.0
aF1.0
aF1.0
aF1.0
aF1.0
aF1.0
aF1.0
aF1.0
aF1.0
aF1.0
aF1.0
aF1.0
aF1.0
aF1.0
aF1.0
aF1.0
aF1.0
aF1.0
aF1.0
aa(lp1398
I0
aI0
aI0
aI0
aI0
aI0
aI0
aI0
aI0
aI0
aI0
aI0
aI0
aI0
aI0
aI0
aI0
aI0
aI0
aI0
aI0
aI0
aI5
aI130
aI750
aaa(lp1399
I400
aF0.1
aI5
aI2
aI1
aI0
ag2
(g6
S'\x8f\xc2\xf5(\\\x0f\x0b@'
p1400
tp1401
Rp1402
aF0.16
a(lp1403
I200
aI400
aI600
aI800
aI1000
aI1200
aI1400
aI1600
aa(lp1404
F1.0
aF1.0
aF1.0
aF1.0
aF1.0
aF1.0
aF0.9721428571428572
aF0.845625
aa(lp1405
I0
aI0
aI0
aI0
aI0
aI0
aI0
aI0
aaa(lp1406
I400
aF0.1
aI5
aI3
aI1
aI0
ag2
(g6
S'\x00\x00\x00\x00\x00\x00)@'
p1407
tp1408
Rp1409
aF0.75
a(lp1410
I200
aI400
aI600
aI800
aI1000
aI1200
aI1400
aI1600
aI1800
aI2000
aI2200
aI2400
aI2600
aI2800
aI3000
aI3200
aI3400
aI3600
aI3800
aI4000
aI4200
aI4400
aI4600
aI4800
aI5000
aa(lp1411
F1.0
aF1.0
aF1.0
aF1.0
aF1.0
aF1.0
aF1.0
aF1.0
aF1.0
aF1.0
aF1.0
aF1.0
aF1.0
aF1.0
aF1.0
aF1.0
aF1.0
aF1.0
aF1.0
aF1.0
aF1.0
aF1.0
aF1.0
aF1.0
aF1.0
aa(lp1412
I0
aI0
aI0
aI0
aI0
aI0
aI0
aI0
aI0
aI0
aI0
aI0
aI0
aI0
aI0
aI0
aI0
aI0
aI0
aI0
aI0
aI0
aI0
aI0
aI0
aaa(lp1413
I400
aF0.1
aI6
aI2
aI1
aI0
ag2
(g6
S'\x85\xebQ\xb8\x1e\x05\x0b@'
p1414
tp1415
Rp1416
aF0.13333333333333333
a(lp1417
I200
aI400
aI600
aI800
aI1000
aI1200
aI1400
aI1600
aa(lp1418
F1.0
aF1.0
aF1.0
aF1.0
aF1.0
aF0.9975
aF0.9757142857142858
aF0.844375
aa(lp1419
I0
aI0
aI0
aI0
aI0
aI0
aI0
aI0
aaa(lp1420
I400
aF0.1
aI6
aI3
aI1
aI0
ag2
(g6
S'\x00\x00\x00\x00\x00\x00)@'
p1421
tp1422
Rp1423
aF0.625
a(lp1424
I200
aI400
aI600
aI800
aI1000
aI1200
aI1400
aI1600
aI1800
aI2000
aI2200
aI2400
aI2600
aI2800
aI3000
aI3200
aI3400
aI3600
aI3800
aI4000
aI4200
aI4400
aI4600
aI4800
aI5000
aa(lp1425
F1.0
aF1.0
aF1.0
aF1.0
aF1.0
aF1.0
aF1.0
aF1.0
aF1.0
aF1.0
aF1.0
aF1.0
aF1.0
aF1.0
aF1.0
aF1.0
aF1.0
aF1.0
aF1.0
aF1.0
aF1.0
aF1.0
aF1.0
aF1.0
aF1.0
aa(lp1426
I0
aI0
aI0
aI0
aI0
aI0
aI0
aI0
aI0
aI0
aI0
aI0
aI0
aI0
aI0
aI0
aI0
aI0
aI0
aI0
aI0
aI0
aI0
aI0
aI0
aaa(lp1427
I400
aF0.15
aI1
aI2
aI1
aI0
ag2
(g6
S'\n\xd7\xa3p=\n\xf0?'
p1428
tp1429
Rp1430
aF0.45
a(lp1431
I200
aI400
aI600
aa(lp1432
F1.0
aF1.0
aF0.6683333333333333
aa(lp1433
I0
aI0
aI0
aaa(lp1434
I400
aF0.15
aI1
aI3
aI1
aI0
ag2
(g6
S'H\xe1z\x14\xaeG\x02@'
p1435
tp1436
Rp1437
aF0.99118125
a(lp1438
I200
aI400
aI600
aI800
aI1000
aI1200
aa(lp1439
F1.0
aF1.0
aF1.0
aF1.0
aF0.915
aF0.7616666666666667
aa(lp1440
I0
aI0
aI0
aI520
aI7601
aI19137
aaa(lp1441
I400
aF0.15
aI2
aI2
aI1
aI0
aI0
aF0.3
a(lp1442
I200
aI400
aI600
aI800
aa(lp1443
F1.0
aF1.0
aF0.8133333333333334
aF0.07375
aa(lp1444
I0
aI0
aI0
aI0
aaa(lp1445
I400
aF0.15
aI2
aI3
aI1
aI0
ag2
(g6
S'33333s\x11@'
p1446
tp1447
Rp1448
aF0.992634375
a(lp1449
I200
aI400
aI600
aI800
aI1000
aI1200
aI1400
aI1600
aI1800
aI2000
aa(lp1450
F1.0
aF1.0
aF1.0
aF1.0
aF1.0
aF1.0
aF1.0
aF1.0
aF0.9716666666666667
aF0.8725
aa(lp1451
I0
aI0
aI0
aI0
aI0
aI0
aI0
aI204
aI4087
aI14119
aaa(lp1452
I400
aF0.15
aI3
aI2
aI1
aI0
aI0
aF0.2
a(lp1453
I200
aI400
aI600
aI800
aa(lp1454
F1.0
aF1.0
aF0.8166666666666667
aF0.08125
aa(lp1455
I0
aI0
aI0
aI0
aaa(lp1456
I400
aF0.15
aI3
aI3
aI1
aI0
ag2
(g6
S'R\xb8\x1e\x85\xeb\x91\x19@'
p1457
tp1458
Rp1459
aF0.9905375
a(lp1460
I200
aI400
aI600
aI800
aI1000
aI1200
aI1400
aI1600
aI1800
aI2000
aI2200
aI2400
aI2600
aI2800
aa(lp1461
F1.0
aF1.0
aF1.0
aF1.0
aF1.0
aF1.0
aF1.0
aF1.0
aF1.0
aF1.0
aF1.0
aF1.0
aF0.9830769230769231
aF0.9132142857142858
aa(lp1462
I0
aI0
aI0
aI0
aI0
aI0
aI0
aI0
aI0
aI0
aI0
aI95
aI2146
aI9514
aaa(lp1463
I400
aF0.15
aI4
aI2
aI1
aI0
aI0
aF0.15
a(lp1464
I200
aI400
aI600
aI800
aa(lp1465
F1.0
aF1.0
aF0.8266666666666667
aF0.08375
aa(lp1466
I0
aI0
aI0
aI0
aaa(lp1467
I400
aF0.15
aI4
aI3
aI1
aI0
ag2
(g6
S'\xf6(\\\x8f\xc2\xb5\x1e@'
p1468
tp1469
Rp1470
aF0.984525
a(lp1471
I200
aI400
aI600
aI800
aI1000
aI1200
aI1400
aI1600
aI1800
aI2000
aI2200
aI2400
aI2600
aI2800
aI3000
aI3200
aI3400
aI3600
aa(lp1472
F1.0
aF1.0
aF1.0
aF1.0
aF1.0
aF1.0
aF1.0
aF1.0
aF1.0
aF1.0
aF1.0
aF1.0
aF1.0
aF0.9992857142857143
aF0.9956666666666667
aF0.9834375
aF0.9361764705882353
aF0.8530555555555556
aa(lp1473
I0
aI0
aI0
aI0
aI0
aI0
aI0
aI0
aI0
aI0
aI0
aI0
aI0
aI0
aI0
aI43
aI1044
aI5968
aaa(lp1474
I400
aF0.15
aI5
aI2
aI1
aI0
aI0
aF0.12
a(lp1475
I200
aI400
aI600
aI800
aa(lp1476
F1.0
aF1.0
aF0.835
aF0.0825
aa(lp1477
I0
aI0
aI0
aI0
aaa(lp1478
I400
aF0.15
aI5
aI3
aI1
aI0
ag2
(g6
S'\x1f\x85\xebQ\xb8\x9e\x1f@'
p1479
tp1480
Rp1481
aF0.81
a(lp1482
I200
aI400
aI600
aI800
aI1000
aI1200
aI1400
aI1600
aI1800
aI2000
aI2200
aI2400
aI2600
aI2800
aI3000
aI3200
aI3400
aI3600
aa(lp1483
F1.0
aF1.0
aF1.0
aF1.0
aF1.0
aF1.0
aF1.0
aF1.0
aF1.0
aF1.0
aF1.0
aF1.0
aF1.0
aF0.9989285714285714
aF0.9966666666666667
aF0.98625
aF0.9564705882352941
aF0.8783333333333333
aa(lp1484
I0
aI0
aI0
aI0
aI0
aI0
aI0
aI0
aI0
aI0
aI0
aI0
aI0
aI0
aI0
aI0
aI0
aI0
aaa(lp1485
I400
aF0.15
aI6
aI2
aI1
aI0
aI0
aF0.1
a(lp1486
I200
aI400
aI600
aI800
aa(lp1487
F1.0
aF1.0
aF0.82
aF0.0825
aa(lp1488
I0
aI0
aI0
aI0
aaa(lp1489
I400
aF0.15
aI6
aI3
aI1
aI0
ag2
(g6
S'=\n\xd7\xa3p\x1d @'
p1490
tp1491
Rp1492
aF0.675
a(lp1493
I200
aI400
aI600
aI800
aI1000
aI1200
aI1400
aI1600
aI1800
aI2000
aI2200
aI2400
aI2600
aI2800
aI3000
aI3200
aI3400
aI3600
aa(lp1494
F1.0
aF1.0
aF1.0
aF1.0
aF1.0
aF1.0
aF1.0
aF1.0
aF1.0
aF1.0
aF1.0
aF1.0
aF1.0
aF0.9996428571428572
aF0.9983333333333333
aF0.9878125
aF0.9647058823529412
aF0.8952777777777777
aa(lp1495
I0
aI0
aI0
aI0
aI0
aI0
aI0
aI0
aI0
aI0
aI0
aI0
aI0
aI0
aI0
aI0
aI0
aI0
aaa(lp1496
I400
aF0.2
aI1
aI2
aI1
aI0
aI0
aF0.4
a(lp1497
I200
aI400
aa(lp1498
F1.0
aF0.03
aa(lp1499
I0
aI0
aaa(lp1500
I400
aF0.2
aI1
aI3
aI1
aI0
ag2
(g6
S'\x85\xebQ\xb8\x1e\x85\xfa?'
p1501
tp1502
Rp1503
aF0.99579375
a(lp1504
I200
aI400
aI600
aI800
aI1000
aa(lp1505
F1.0
aF1.0
aF1.0
aF0.83
aF0.663
aa(lp1506
I0
aI0
aI335
aI11080
aI26891
aaa(lp1507
I400
aF0.2
aI2
aI2
aI1
aI0
aI0
aF0.2
a(lp1508
I200
aI400
aa(lp1509
F1.0
aF0.09
aa(lp1510
I0
aI0
aaa(lp1511
I400
aF0.2
aI2
aI3
aI1
aI0
ag2
(g6
S'\xaeG\xe1z\x14.\x04@'
p1512
tp1513
Rp1514
aF0.98878125
a(lp1515
I200
aI400
aI600
aI800
aI1000
aI1200
aI1400
aa(lp1516
F1.0
aF1.0
aF1.0
aF1.0
aF0.999
aF0.9641666666666666
aF0.7207142857142858
aa(lp1517
I0
aI0
aI0
aI0
aI0
aI123
aI6530
aaa(lp1518
I400
aF0.2
aI3
aI2
aI1
aI0
aI0
aF0.13333333333333333
a(lp1519
I200
aI400
aa(lp1520
F1.0
aF0.06
aa(lp1521
I0
aI0
aaa(lp1522
I400
aF0.2
aI3
aI3
aI1
aI0
ag2
(g6
S'33333\xb3\x04@'
p1523
tp1524
Rp1525
aF0.7
a(lp1526
I200
aI400
aI600
aI800
aI1000
aI1200
aI1400
aa(lp1527
F1.0
aF1.0
aF1.0
aF1.0
aF0.999
aF0.9816666666666667
aF0.7392857142857143
aa(lp1528
I0
aI0
aI0
aI0
aI0
aI0
aI0
aaa(lp1529
I400
aF0.2
aI4
aI2
aI1
aI0
aI0
aF0.1
a(lp1530
I200
aI400
aa(lp1531
F1.0
aF0.0875
aa(lp1532
I0
aI0
aaa(lp1533
I400
aF0.2
aI4
aI3
aI1
aI0
ag2
(g6
S'\xc3\xf5(\\\x8fB\x05@'
p1534
tp1535
Rp1536
aF0.525
a(lp1537
I200
aI400
aI600
aI800
aI1000
aI1200
aI1400
aa(lp1538
F1.0
aF1.0
aF1.0
aF1.0
aF1.0
aF0.9866666666666667
aF0.7592857142857142
aa(lp1539
I0
aI0
aI0
aI0
aI0
aI0
aI0
aaa(lp1540
I400
aF0.2
aI5
aI2
aI1
aI0
aI0
aF0.08
a(lp1541
I200
aI400
aa(lp1542
F1.0
aF0.05
aa(lp1543
I0
aI0
aaa(lp1544
I400
aF0.2
aI5
aI3
aI1
aI0
ag2
(g6
S'\xaeG\xe1z\x14\xae\x05@'
p1545
tp1546
Rp1547
aF0.42
a(lp1548
I200
aI400
aI600
aI800
aI1000
aI1200
aI1400
aa(lp1549
F1.0
aF1.0
aF1.0
aF1.0
aF1.0
aF0.9841666666666666
aF0.7742857142857142
aa(lp1550
I0
aI0
aI0
aI0
aI0
aI0
aI0
aaa(lp1551
I400
aF0.2
aI6
aI2
aI1
aI0
aI0
aF0.06666666666666667
a(lp1552
I200
aI400
aa(lp1553
F1.0
aF0.0675
aa(lp1554
I0
aI0
aaa(lp1555
I400
aF0.2
aI6
aI3
aI1
aI0
ag2
(g6
S')\\\x8f\xc2\xf5(\x06@'
p1556
tp1557
Rp1558
aF0.35
a(lp1559
I200
aI400
aI600
aI800
aI1000
aI1200
aI1400
aa(lp1560
F1.0
aF1.0
aF1.0
aF1.0
aF0.999
aF0.9808333333333333
aF0.7914285714285715
aa(lp1561
I0
aI0
aI0
aI0
aI0
aI0
aI0
aaa(lp1562
I400
aF0.3
aI1
aI2
aI1
aI0
aI0
aF0.3
a(lp1563
I200
aa(lp1564
F0.005
aa(lp1565
I0
aaa(lp1566
I400
aF0.3
aI1
aI3
aI1
aI0
aI0
aF0.8961375
a(lp1567
I200
aI400
aa(lp1568
F1.0
aF0.095
aa(lp1569
I0
aI206
aaa(lp1570
I400
aF0.3
aI2
aI2
aI1
aI0
aI0
aF0.15
a(lp1571
I200
aa(lp1572
F0.005
aa(lp1573
I0
aaa(lp1574
I400
aF0.3
aI2
aI3
aI1
aI0
ag2
(g6
S'\xcd\xcc\xcc\xcc\xcc\xcc\xc4?'
p1575
tp1576
Rp1577
aF0.45
a(lp1578
I200
aI400
aa(lp1579
F1.0
aF0.1625
aa(lp1580
I0
aI0
aaa(lp1581
I400
aF0.3
aI3
aI2
aI1
aI0
aI0
aF0.1
a(lp1582
I200
aa(lp1583
F0.005
aa(lp1584
I0
aaa(lp1585
I400
aF0.3
aI3
aI3
aI1
aI0
ag2
(g6
S'\xd7\xa3p=\n\xd7\xcb?'
p1586
tp1587
Rp1588
aF0.3
a(lp1589
I200
aI400
aa(lp1590
F1.0
aF0.2175
aa(lp1591
I0
aI0
aaa(lp1592
I400
aF0.3
aI4
aI2
aI1
aI0
aI0
aF0.075
a(lp1593
I200
aa(lp1594
F0.005
aa(lp1595
I0
aaa(lp1596
I400
aF0.3
aI4
aI3
aI1
aI0
ag2
(g6
S'q=\n\xd7\xa3p\xcd?'
p1597
tp1598
Rp1599
aF0.225
a(lp1600
I200
aI400
aa(lp1601
F1.0
aF0.23
aa(lp1602
I0
aI0
aaa(lp1603
I400
aF0.3
aI5
aI2
aI1
aI0
aI0
aF0.06
a(lp1604
I200
aa(lp1605
F0.01
aa(lp1606
I0
aaa(lp1607
I400
aF0.3
aI5
aI3
aI1
aI0
ag2
(g6
S'{\x14\xaeG\xe1z\xcc?'
p1608
tp1609
Rp1610
aF0.18
a(lp1611
I200
aI400
aa(lp1612
F1.0
aF0.2225
aa(lp1613
I0
aI0
aaa(lp1614
I400
aF0.3
aI6
aI2
aI1
aI0
aI0
aF0.05
a(lp1615
I200
aa(lp1616
F0.005
aa(lp1617
I0
aaa(lp1618
I400
aF0.3
aI6
aI3
aI1
aI0
ag2
(g6
S'{\x14\xaeG\xe1z\xcc?'
p1619
tp1620
Rp1621
aF0.15
a(lp1622
I200
aI400
aa(lp1623
F1.0
aF0.2225
aa(lp1624
I0
aI0
aaa(lp1625
I400
aF0.5
aI1
aI2
aI1
aI0
aI0
aF0.5
a(lp1626
I200
aa(lp1627
F0.005
aa(lp1628
I0
aaa(lp1629
I400
aF0.5
aI1
aI3
aI1
aI0
aI0
aF0.75
a(lp1630
I200
aa(lp1631
F0.005
aa(lp1632
I0
aaa(lp1633
I400
aF0.5
aI2
aI2
aI1
aI0
aI0
aF0.25
a(lp1634
I200
aa(lp1635
F0.005
aa(lp1636
I0
aaa(lp1637
I400
aF0.5
aI2
aI3
aI1
aI0
aI0
aF0.375
a(lp1638
I200
aa(lp1639
F0.005
aa(lp1640
I0
aaa(lp1641
I400
aF0.5
aI3
aI2
aI1
aI0
aI0
aF0.16666666666666666
a(lp1642
I200
aa(lp1643
F0.005
aa(lp1644
I0
aaa(lp1645
I400
aF0.5
aI3
aI3
aI1
aI0
aI0
aF0.25
a(lp1646
I200
aa(lp1647
F0.005
aa(lp1648
I0
aaa(lp1649
I400
aF0.5
aI4
aI2
aI1
aI0
aI0
aF0.125
a(lp1650
I200
aa(lp1651
F0.005
aa(lp1652
I0
aaa(lp1653
I400
aF0.5
aI4
aI3
aI1
aI0
aI0
aF0.1875
a(lp1654
I200
aa(lp1655
F0.005
aa(lp1656
I0
aaa(lp1657
I400
aF0.5
aI5
aI2
aI1
aI0
aI0
aF0.1
a(lp1658
I200
aa(lp1659
F0.005
aa(lp1660
I0
aaa(lp1661
I400
aF0.5
aI5
aI3
aI1
aI0
aI0
aF0.15
a(lp1662
I200
aa(lp1663
F0.005
aa(lp1664
I0
aaa(lp1665
I400
aF0.5
aI6
aI2
aI1
aI0
aI0
aF0.08333333333333333
a(lp1666
I200
aa(lp1667
F0.005
aa(lp1668
I0
aaa(lp1669
I400
aF0.5
aI6
aI3
aI1
aI0
aI0
aF0.125
a(lp1670
I200
aa(lp1671
F0.005
aa(lp1672
I0
aaa.