(lp0
(lp1
I100
aF0.05
aI1
aI0
acnumpy.core.multiarray
scalar
p2
(cnumpy
dtype
p3
(S'f8'
p4
I0
I1
tp5
Rp6
(I3
S'<'
p7
NNNI-1
I-1
I0
tp8
bS'33333#_@'
p9
tp10
Rp11
a(lp12
I400
aI800
aI1200
aI1600
aI2000
aI2400
aI2800
aI3200
aI3600
aI4000
aI4400
aI4800
aI5200
aI5600
aI6000
aI6400
aI6800
aI7200
aI7600
aI8000
aI8400
aI8800
aI9200
aI9600
aI10000
aI10400
aI10800
aI11200
aI11600
aI12000
aI12400
aI12800
aI13200
aI13600
aa(lp13
F1.0
aF1.0
aF1.0
aF1.0
aF1.0
aF1.0
aF1.0
aF1.0
aF1.0
aF1.0
aF1.0
aF1.0
aF1.0
aF1.0
aF1.0
aF1.0
aF1.0
aF1.0
aF0.9998684210526316
aF0.99975
aF0.9995238095238095
aF0.9993181818181818
aF0.9992391304347826
aF0.9988541666666667
aF0.9985
aF0.9978846153846154
aF0.9959259259259259
aF0.9938392857142857
aF0.9903448275862069
aF0.9845833333333334
aF0.9758064516129032
aF0.95984375
aF0.9445454545454546
aF0.9158088235294117
aaa(lp14
I100
aF0.1
aI1
aI0
ag2
(g6
S'q=\n\xd7\xa3\xd0@@'
p15
tp16
Rp17
a(lp18
I400
aI800
aI1200
aI1600
aI2000
aI2400
aI2800
aI3200
aI3600
aI4000
aa(lp19
F1.0
aF1.0
aF1.0
aF1.0
aF1.0
aF1.0
aF1.0
aF1.0
aF0.9908333333333333
aF0.84075
aaa(lp20
I100
aF0.15
aI1
aI0
ag2
(g6
S'R\xb8\x1e\x85\xebQ#@'
p21
tp22
Rp23
a(lp24
I400
aI800
aI1200
aI1600
aa(lp25
F1.0
aF1.0
aF1.0
aF0.60375
aaa(lp26
I100
aF0.2
aI1
aI0
ag2
(g6
S'{\x14\xaeG\xe1z\x0c@'
p27
tp28
Rp29
a(lp30
I400
aI800
aa(lp31
F1.0
aF0.445
aaa(lp32
I100
aF0.3
aI1
aI0
aI0
a(lp33
I400
aa(lp34
F0.0025
aaa(lp35
I200
aF0.05
aI1
aI0
ag2
(g6
S'\x00\x00\x00\x00\x00\x00_@'
p36
tp37
Rp38
a(lp39
I400
aI800
aI1200
aI1600
aI2000
aI2400
aI2800
aI3200
aI3600
aI4000
aI4400
aI4800
aI5200
aI5600
aI6000
aI6400
aI6800
aI7200
aI7600
aI8000
aI8400
aI8800
aI9200
aI9600
aI10000
aI10400
aI10800
aI11200
aI11600
aI12000
aI12400
aI12800
aI13200
aI13600
aI14000
aI14400
aI14800
aI15200
aI15600
aI16000
aI16400
aI16800
aI17200
aI17600
aI18000
aI18400
aI18800
aI19200
aI19600
aI20000
aI20400
aI20800
aI21200
aI21600
aI22000
aI22400
aI22800
aI23200
aI23600
aI24000
aI24400
aI24800
aa(lp40
F1.0
aF1.0
aF1.0
aF1.0
aF1.0
aF1.0
aF1.0
aF1.0
aF1.0
aF1.0
aF1.0
aF1.0
aF1.0
aF1.0
aF1.0
aF1.0
aF1.0
aF1.0
aF1.0
aF1.0
aF1.0
aF1.0
aF1.0
aF1.0
aF1.0
aF1.0
aF1.0
aF1.0
aF1.0
aF1.0
aF1.0
aF1.0
aF1.0
aF1.0
aF1.0
aF1.0
aF1.0
aF1.0
aF1.0
aF1.0
aF1.0
aF1.0
aF1.0
aF1.0
aF1.0
aF1.0
aF1.0
aF1.0
aF1.0
aF1.0
aF1.0
aF1.0
aF1.0
aF1.0
aF1.0
aF1.0
aF1.0
aF1.0
aF1.0
aF1.0
aF1.0
aF1.0
aaa(lp41
I200
aF0.1
aI1
aI0
ag2
(g6
S'33333\x13:@'
p42
tp43
Rp44
a(lp45
I400
aI800
aI1200
aI1600
aI2000
aI2400
aI2800
aI3200
aI3600
aI4000
aI4400
aI4800
aI5200
aI5600
aI6000
aa(lp46
F1.0
aF1.0
aF1.0
aF1.0
aF1.0
aF1.0
aF1.0
aF1.0
aF1.0
aF1.0
aF1.0
aF1.0
aF1.0
aF0.9973214285714286
aF0.8691666666666666
aaa(lp47
I200
aF0.15
aI1
aI0
aI0
a(lp48
I400
aI800
aI1200
aI1600
aI2000
aI2400
aa(lp49
F1.0
aF1.0
aF1.0
aF1.0
aF0.9995
aF0.05708333333333333
aaa(lp50
I200
aF0.2
aI1
aI0
aI0
a(lp51
I400
aI800
aI1200
aa(lp52
F1.0
aF1.0
aF0.0075
aaa(lp53
I200
aF0.3
aI1
aI0
aI0
a(lp54
I400
aa(lp55
F0.02
aaa(lp56
I300
aF0.05
aI1
aI0
ag2
(g6
S'\xab\xaa\xaa\xaa\xaa\xaaT@'
p57
tp58
Rp59
a(lp60
I400
aI800
aI1200
aI1600
aI2000
aI2400
aI2800
aI3200
aI3600
aI4000
aI4400
aI4800
aI5200
aI5600
aI6000
aI6400
aI6800
aI7200
aI7600
aI8000
aI8400
aI8800
aI9200
aI9600
aI10000
aI10400
aI10800
aI11200
aI11600
aI12000
aI12400
aI12800
aI13200
aI13600
aI14000
aI14400
aI14800
aI15200
aI15600
aI16000
aI16400
aI16800
aI17200
aI17600
aI18000
aI18400
aI18800
aI19200
aI19600
aI20000
aI20400
aI20800
aI21200
aI21600
aI22000
aI22400
aI22800
aI23200
aI23600
aI24000
aI24400
aI24800
aa(lp61
F1.0
aF1.0
aF1.0
aF1.0
aF1.0
aF1.0
aF1.0
aF1.0
aF1.0
aF1.0
aF1.0
aF1.0
aF1.0
aF1.0
aF1.0
aF1.0
aF1.0
aF1.0
aF1.0
aF1.0
aF1.0
aF1.0
aF1.0
aF1.0
aF1.0
aF1.0
aF1.0
aF1.0
aF1.0
aF1.0
aF1.0
aF1.0
aF1.0
aF1.0
aF1.0
aF1.0
aF1.0
aF1.0
aF1.0
aF1.0
aF1.0
aF1.0
aF1.0
aF1.0
aF1.0
aF1.0
aF1.0
aF1.0
aF1.0
aF1.0
aF1.0
aF1.0
aF1.0
aF1.0
aF1.0
aF1.0
aF1.0
aF1.0
aF1.0
aF1.0
aF1.0
aF1.0
aaa(lp62
I300
aF0.1
aI1
aI0
ag2
(g6
S'\x11\x11\x11\x11\x11\xd14@'
p63
tp64
Rp65
a(lp66
I400
aI800
aI1200
aI1600
aI2000
aI2400
aI2800
aI3200
aI3600
aI4000
aI4400
aI4800
aI5200
aI5600
aI6000
aI6400
aI6800
aI7200
aa(lp67
F1.0
aF1.0
aF1.0
aF1.0
aF1.0
aF1.0
aF1.0
aF1.0
aF1.0
aF1.0
aF1.0
aF1.0
aF1.0
aF1.0
aF1.0
aF1.0
aF0.9976470588235294
aF0.8673611111111111
aaa(lp68
I300
aF0.15
aI1
aI0
aI0
a(lp69
I400
aI800
aI1200
aI1600
aI2000
aI2400
aI2800
aa(lp70
F1.0
aF1.0
aF1.0
aF1.0
aF1.0
aF0.9791666666666666
aF0.024285714285714285
aaa(lp71
I300
aF0.2
aI1
aI0
ag2
(g6
S'\xf6(\\\x8f\xc2\xf5\xfc?'
p72
tp73
Rp74
a(lp75
I400
aI800
aI1200
aa(lp76
F1.0
aF1.0
aF0.4525
aaa(lp77
I300
aF0.3
aI1
aI0
aI0
a(lp78
I400
aI800
aa(lp79
F0.43
aF0.00125
aaa.