(lp0
(lp1
I100
aF0.03
aI20
aI5
aI1
aI0
aI0
aF0.0
a(lp2
I200
aa(lp3
F0.005
aa(lp4
I600
aaa(lp5
I100
aF0.05
aI20
aI5
aI1
aI0
acnumpy.core.multiarray
scalar
p6
(cnumpy
dtype
p7
(S'f8'
p8
I0
I1
tp9
Rp10
(I3
S'<'
p11
NNNI-1
I-1
I0
tp12
bS'\x8f\xc2\xf5(\\/I@'
p13
tp14
Rp15
aF0.738225
a(lp16
I200
aI400
aI600
aI800
aI1000
aI1200
aI1400
aI1600
aI1800
aI2000
aI2200
aI2400
aI2600
aI2800
aI3000
aI3200
aI3400
aI3600
aI3800
aI4000
aI4200
aI4400
aI4600
aI4800
aI5000
aI5200
aI5400
aI5600
aI5800
aI6000
aI6200
aI6400
aa(lp17
F1.0
aF1.0
aF1.0
aF1.0
aF1.0
aF1.0
aF1.0
aF1.0
aF1.0
aF1.0
aF1.0
aF1.0
aF1.0
aF1.0
aF1.0
aF1.0
aF0.9997058823529412
aF0.9991666666666666
aF0.998421052631579
aF0.9945
aF0.9902380952380953
aF0.9831818181818182
aF0.9743478260869565
aF0.9625
aF0.9466
aF0.9271153846153846
aF0.9066666666666666
aF0.8835714285714286
aF0.8589655172413793
aF0.8348333333333333
aF0.8112903225806452
aF0.78703125
aa(lp18
I0
aI0
aI0
aI0
aI0
aI0
aI0
aI0
aI0
aI0
aI0
aI0
aI0
aI0
aI0
aI0
aI1
aI3
aI6
aI23
aI43
aI81
aI135
aI211
aI328
aI480
aI660
aI914
aI1229
aI1595
aI1984
aI2471
aaa(lp19
I100
aF0.07
aI20
aI5
aI1
aI0
ag6
(g10
S'H\xe1z\x14\xaegG@'
p20
tp21
Rp22
aF0.900875
a(lp23
I200
aI400
aI600
aI800
aI1000
aI1200
aI1400
aI1600
aI1800
aI2000
aI2200
aI2400
aI2600
aI2800
aI3000
aI3200
aI3400
aI3600
aI3800
aI4000
aI4200
aI4400
aI4600
aI4800
aI5000
aI5200
aI5400
aI5600
aI5800
aa(lp24
F1.0
aF1.0
aF1.0
aF1.0
aF1.0
aF1.0
aF1.0
aF1.0
aF1.0
aF1.0
aF1.0
aF1.0
aF1.0
aF1.0
aF1.0
aF1.0
aF1.0
aF1.0
aF0.998421052631579
aF0.99725
aF0.9907142857142858
aF0.9790909090909091
aF0.9660869565217391
aF0.94625
aF0.919
aF0.8919230769230769
aF0.8640740740740741
aF0.8353571428571429
aF0.8070689655172414
aa(lp25
I0
aI0
aI0
aI0
aI0
aI0
aI0
aI0
aI0
aI0
aI0
aI0
aI0
aI0
aI0
aI0
aI0
aI3
aI13
aI32
aI92
aI218
aI442
aI771
aI1259
aI1898
aI2678
aI3567
aI4565
aaa(lp26
I100
aF0.1
aI20
aI5
aI1
aI0
ag6
(g10
S'\xa4p=\n\xd7\xa3B@'
p27
tp28
Rp29
aF0.9484
a(lp30
I200
aI400
aI600
aI800
aI1000
aI1200
aI1400
aI1600
aI1800
aI2000
aI2200
aI2400
aI2600
aI2800
aI3000
aI3200
aI3400
aI3600
aI3800
aI4000
aI4200
aa(lp31
F1.0
aF1.0
aF1.0
aF1.0
aF1.0
aF1.0
aF1.0
aF1.0
aF1.0
aF1.0
aF1.0
aF1.0
aF1.0
aF1.0
aF1.0
aF1.0
aF0.9994117647058823
aF0.9936111111111111
aF0.9721052631578947
aF0.9315
aF0.8876190476190476
aa(lp32
I0
aI0
aI0
aI0
aI0
aI0
aI0
aI0
aI0
aI0
aI0
aI0
aI0
aI0
aI2
aI31
aI161
aI551
aI1323
aI2538
aI4064
aaa(lp33
I100
aF0.15
aI20
aI5
aI1
aI0
ag6
(g10
S'\n\xd7\xa3p=J8@'
p34
tp35
Rp36
aF0.971925
a(lp37
I200
aI400
aI600
aI800
aI1000
aI1200
aI1400
aI1600
aI1800
aI2000
aI2200
aI2400
aI2600
aI2800
aa(lp38
F1.0
aF1.0
aF1.0
aF1.0
aF1.0
aF1.0
aF1.0
aF1.0
aF1.0
aF1.0
aF1.0
aF0.99
aF0.935
aF0.8675
aa(lp39
I0
aI0
aI0
aI0
aI0
aI0
aI0
aI0
aI0
aI0
aI2
aI143
aI1034
aI3123
aaa(lp40
I100
aF0.2
aI20
aI5
aI1
aI0
ag6
(g10
S'q=\n\xd7\xa303@'
p41
tp42
Rp43
aF0.985
a(lp44
I200
aI400
aI600
aI800
aI1000
aI1200
aI1400
aI1600
aI1800
aI2000
aI2200
aa(lp45
F1.0
aF1.0
aF1.0
aF1.0
aF1.0
aF1.0
aF1.0
aF1.0
aF1.0
aF0.9575
aF0.8722727272727273
aa(lp46
I0
aI0
aI0
aI0
aI0
aI0
aI0
aI0
aI53
aI1277
aI4600
aaa(lp47
I100
aF0.25
aI20
aI5
aI1
aI0
ag6
(g10
S'\x8f\xc2\xf5(\\\x8f/@'
p48
tp49
Rp50
aF0.990675
a(lp51
I200
aI400
aI600
aI800
aI1000
aI1200
aI1400
aI1600
aI1800
aa(lp52
F1.0
aF1.0
aF1.0
aF1.0
aF1.0
aF1.0
aF1.0
aF0.98375
aF0.8766666666666667
aa(lp53
I0
aI0
aI0
aI0
aI0
aI0
aI4
aI1101
aI5373
aaa(lp54
I100
aF0.3
aI20
aI5
aI1
aI0
ag6
(g10
S'\x1f\x85\xebQ\xb8\x9e)@'
p55
tp56
Rp57
aF0.993675
a(lp58
I200
aI400
aI600
aI800
aI1000
aI1200
aI1400
aI1600
aa(lp59
F1.0
aF1.0
aF1.0
aF1.0
aF1.0
aF0.9991666666666666
aF0.915
aF0.800625
aa(lp60
I0
aI0
aI0
aI0
aI0
aI5
aI2447
aI8253
aaa.