(lp0
(lp1
I200
aF0.05
aF0.1
aI0
acnumpy.core.multiarray
scalar
p2
(cnumpy
dtype
p3
(S'f8'
p4
I0
I1
tp5
Rp6
(I3
S'<'
p7
NNNI-1
I-1
I0
tp8
bS'333333\xe3?'
p9
tp10
Rp11
a(lp12
I50
aI100
aI150
aI200
aI250
aa(lp13
F0.96
aF0.88
aF0.6933333333333334
aF0.575
aF0.48
aaa.