(lp0
(lp1
I400
aF0.05
aI1
aF0.1
aI0
a(lp2
I50
aI100
aI150
aa(lp3
F0.02
aF0.01
aF0.006666666666666667
aaa(lp4
I400
aF0.05
aI1
aF0.2
aI0
a(lp5
I50
aI100
aI150
aa(lp6
F0.02
aF0.01
aF0.006666666666666667
aaa(lp7
I400
aF0.05
aI1
aF0.3
aI0
a(lp8
I50
aI100
aI150
aa(lp9
F0.02
aF0.01
aF0.006666666666666667
aaa(lp10
I400
aF0.05
aI1
aF0.4
aI0
a(lp11
I50
aI100
aI150
aa(lp12
F0.02
aF0.01
aF0.006666666666666667
aaa(lp13
I400
aF0.05
aI1
aF0.5
aI0
a(lp14
I50
aI100
aI150
aa(lp15
F0.02
aF0.01
aF0.006666666666666667
aaa.