(lp0
(lp1
I100
aF0.07
aI11
aI3
aI1
aI0
acnumpy.core.multiarray
scalar
p2
(cnumpy
dtype
p3
(S'f8'
p4
I0
I1
tp5
Rp6
(I3
S'<'
p7
NNNI-1
I-1
I0
tp8
bS'\\\x8f\xc2\xf5(\x9cG@'
p9
tp10
Rp11
aF0.9626454545454546
a(lp12
I500
aI1000
aI1500
aI2000
aI2500
aI3000
aI3500
aI4000
aI4500
aI5000
aI5500
aI6000
aa(lp13
F1.0
aF1.0
aF1.0
aF1.0
aF0.9996
aF0.9996666666666667
aF0.9994285714285714
aF0.9995
aF0.9895555555555555
aF0.9388
aF0.8596363636363636
aF0.787
aa(lp14
I0
aI0
aI0
aI0
aI0
aI1
aI4
aI35
aI372
aI1546
aI3824
aI6703
aaa(lp15
I100
aF0.07
aI12
aI3
aI1
aI0
ag2
(g6
S'fffff\x86I@'
p16
tp17
Rp18
aF0.963375
a(lp19
I500
aI1000
aI1500
aI2000
aI2500
aI3000
aI3500
aI4000
aI4500
aI5000
aI5500
aI6000
aI6500
aa(lp20
F1.0
aF1.0
aF1.0
aF1.0
aF1.0
aF1.0
aF0.9994285714285714
aF0.999
aF0.9968888888888889
aF0.9806
aF0.9252727272727272
aF0.8516666666666667
aF0.7853846153846153
aa(lp21
I0
aI0
aI0
aI0
aI0
aI0
aI0
aI2
aI65
aI461
aI1787
aI4084
aI6965
aaa(lp22
I100
aF0.07
aI13
aI3
aI1
aI0
ag2
(g6
S'33333\xb3K@'
p23
tp24
Rp25
aF0.965123076923077
a(lp26
I500
aI1000
aI1500
aI2000
aI2500
aI3000
aI3500
aI4000
aI4500
aI5000
aI5500
aI6000
aI6500
aI7000
aa(lp27
F1.0
aF1.0
aF1.0
aF1.0
aF1.0
aF0.9996666666666667
aF0.9991428571428571
aF0.999
aF0.9982222222222222
aF0.9966
aF0.9785454545454545
aF0.9208333333333333
aF0.8524615384615385
aF0.7914285714285715
aa(lp28
I0
aI0
aI0
aI0
aI0
aI0
aI0
aI0
aI7
aI88
aI541
aI1932
aI4279
aI7178
aaa(lp29
I100
aF0.07
aI14
aI3
aI1
aI0
ag2
(g6
S'\xcd\xcc\xcc\xcc\xcc\xccM@'
p30
tp31
Rp32
aF0.9528857142857143
a(lp33
I500
aI1000
aI1500
aI2000
aI2500
aI3000
aI3500
aI4000
aI4500
aI5000
aI5500
aI6000
aI6500
aI7000
aa(lp34
F1.0
aF1.0
aF1.0
aF1.0
aF0.9996
aF0.9996666666666667
aF0.9997142857142857
aF0.9995
aF0.9991111111111111
aF0.9984
aF0.9945454545454545
aF0.9731666666666666
aF0.9163076923076923
aF0.8514285714285714
aa(lp35
I0
aI0
aI0
aI0
aI0
aI0
aI0
aI0
aI1
aI20
aI129
aI661
aI2133
aI4532
aaa(lp36
I100
aF0.07
aI15
aI3
aI1
aI0
ag2
(g6
S'\xa4p=\n\xd7\xc3O@'
p37
tp38
Rp39
aF0.9547
a(lp40
I500
aI1000
aI1500
aI2000
aI2500
aI3000
aI3500
aI4000
aI4500
aI5000
aI5500
aI6000
aI6500
aI7000
aI7500
aa(lp41
F1.0
aF1.0
aF1.0
aF1.0
aF1.0
aF1.0
aF0.9997142857142857
aF0.99975
aF0.9991111111111111
aF0.9982
aF0.9974545454545455
aF0.9923333333333333
aF0.963076923076923
aF0.9071428571428571
aF0.8470666666666666
aa(lp42
I0
aI0
aI0
aI0
aI0
aI0
aI0
aI0
aI0
aI1
aI17
aI170
aI811
aI2341
aI4765
aaa(lp43
I100
aF0.07
aI16
aI3
aI1
aI0
ag2
(g6
S'\xe1z\x14\xaeG\xd1P@'
p44
tp45
Rp46
aF0.95750625
a(lp47
I500
aI1000
aI1500
aI2000
aI2500
aI3000
aI3500
aI4000
aI4500
aI5000
aI5500
aI6000
aI6500
aI7000
aI7500
aI8000
aa(lp48
F1.0
aF1.0
aF1.0
aF1.0
aF1.0
aF1.0
aF0.9988571428571429
aF0.99875
aF0.9988888888888889
aF0.998
aF0.9967272727272727
aF0.9945
aF0.9863076923076923
aF0.9545714285714286
aF0.8974666666666666
aF0.840875
aa(lp49
I0
aI0
aI0
aI0
aI0
aI0
aI0
aI0
aI0
aI0
aI0
aI32
aI204
aI896
aI2532
aI4933
aaa.