(lp0
(lp1
I100
aF0.07
aI71
aI4
aI1
aI0
acnumpy.core.multiarray
scalar
p2
(cnumpy
dtype
p3
(S'f8'
p4
I0
I1
tp5
Rp6
(I3
S'<'
p7
NNNI-1
I-1
I0
tp8
bS'{\x14\xaeG\xe1\x82m@'
p9
tp10
Rp11
aF0.9751887323943662
a(lp12
I26000
aI27000
aa(lp13
F0.9077692307692308
aF0.8744074074074074
aa(lp14
I10048
aI15904
aaa(lp15
I100
aF0.07
aI76
aI4
aI1
aI0
ag2
(g6
S'\x8f\xc2\xf5(\\\xafo@'
p16
tp17
Rp18
aF0.9770631578947369
a(lp19
I26000
aI27000
aI28000
aI29000
aa(lp20
F0.9696538461538462
aF0.9378148148148148
aF0.905
aF0.8740689655172413
aa(lp21
I2583
aI6302
aI11444
aI17358
aaa(lp22
I100
aF0.07
aI81
aI4
aI1
aI0
ag2
(g6
S'\x14\xaeG\xe1z\xf4p@'
p23
tp24
Rp25
aF0.973353086419753
a(lp26
I26000
aI27000
aI28000
aI29000
aI30000
aa(lp27
F0.9973461538461539
aF0.9885555555555555
aF0.9662142857142857
aF0.9352068965517242
aF0.9042666666666667
aa(lp28
I221
aI1084
aI3408
aI7541
aI12896
aaa.