(lp0
(lp1
I150
aF0.07
aI1
aI2
aI1
aI0
acnumpy.core.multiarray
scalar
p2
(cnumpy
dtype
p3
(S'f8'
p4
I0
I1
tp5
Rp6
(I3
S'<'
p7
NNNI-1
I-1
I0
tp8
bS'\xb5\x81N\x1b\xe8\xb4\x17@'
p9
tp10
Rp11
aF0.8895111111111111
a(lp12
I200
aI400
aI600
aI800
aI1000
aI1200
aa(lp13
F1.0
aF1.0
aF1.0
aF0.98625
aF0.886
aF0.7408333333333333
aa(lp14
I0
aI1
aI18
aI177
aI811
aI1993
aaa(lp15
I150
aF0.07
aI2
aI2
aI1
aI0
ag2
(g6
S'\x8f\xc2\xf5(\\\x8f#@'
p16
tp17
Rp18
aF0.7902666666666667
a(lp19
I200
aI400
aI600
aI800
aI1000
aI1200
aI1400
aI1600
aI1800
aa(lp20
F1.0
aF1.0
aF1.0
aF0.99875
aF0.996
aF0.9908333333333333
aF0.97
aF0.92
aF0.815
aa(lp21
I0
aI0
aI0
aI0
aI0
aI2
aI16
aI51
aI219
aaa(lp22
I150
aF0.07
aI3
aI2
aI1
aI0
ag2
(g6
S'\x1f\x85\xebQ\xb8\x1e"@'
p23
tp24
Rp25
aF0.5925925925925926
a(lp26
I200
aI400
aI600
aI800
aI1000
aI1200
aI1400
aI1600
aI1800
aI2000
aa(lp27
F1.0
aF1.0
aF1.0
aF0.99875
aF0.998
aF0.9916666666666667
aF0.965
aF0.918125
aF0.8238888888888889
aF0.6795
aa(lp28
I0
aI0
aI0
aI0
aI0
aI0
aI0
aI0
aI0
aI0
aaa(lp29
I150
aF0.07
aI4
aI2
aI1
aI0
ag2
(g6
S'A\xa7\rt\xda@#@'
p30
tp31
Rp32
aF0.4444444444444444
a(lp33
I200
aI400
aI600
aI800
aI1000
aI1200
aI1400
aI1600
aI1800
aI2000
aa(lp34
F1.0
aF1.0
aF1.0
aF1.0
aF0.999
aF0.9891666666666666
aF0.965
aF0.915625
aF0.8377777777777777
aF0.722
aa(lp35
I0
aI0
aI0
aI0
aI0
aI0
aI0
aI0
aI0
aI0
aaa(lp36
I150
aF0.07
aI5
aI2
aI1
aI0
ag2
(g6
S'\xab\xaa\xaa\xaa\xaa\xaa#@'
p37
tp38
Rp39
aF0.35555555555555557
a(lp40
I200
aI400
aI600
aI800
aI1000
aI1200
aI1400
aI1600
aI1800
aI2000
aa(lp41
F1.0
aF1.0
aF1.0
aF0.99875
aF0.998
aF0.99
aF0.9728571428571429
aF0.93
aF0.8527777777777777
aF0.7375
aa(lp42
I0
aI0
aI0
aI0
aI0
aI0
aI0
aI0
aI0
aI0
aaa(lp43
I150
aF0.07
aI6
aI2
aI1
aI0
ag2
(g6
S'\x82N\x1b\xe8\xb4\x81#@'
p44
tp45
Rp46
aF0.2962962962962963
a(lp47
I200
aI400
aI600
aI800
aI1000
aI1200
aI1400
aI1600
aI1800
aI2000
aa(lp48
F1.0
aF1.0
aF1.0
aF1.0
aF0.998
aF0.9916666666666667
aF0.9707142857142858
aF0.92875
aF0.85
aF0.7315
aa(lp49
I0
aI0
aI0
aI0
aI0
aI0
aI0
aI0
aI0
aI0
aaa(lp50
I150
aF0.07
aI7
aI2
aI1
aI0
ag2
(g6
S'H\xe1z\x14\xaeG#@'
p51
tp52
Rp53
aF0.25396825396825395
a(lp54
I200
aI400
aI600
aI800
aI1000
aI1200
aI1400
aI1600
aI1800
aI2000
aa(lp55
F1.0
aF1.0
aF1.0
aF1.0
aF0.997
aF0.9891666666666666
aF0.9642857142857143
aF0.91875
aF0.8422222222222222
aF0.723
aa(lp56
I0
aI0
aI0
aI0
aI0
aI0
aI0
aI0
aI0
aI0
aaa(lp57
I150
aF0.07
aI8
aI2
aI1
aI0
ag2
(g6
S'c\xc9/\x96\xfcb#@'
p58
tp59
Rp60
aF0.2222222222222222
a(lp61
I200
aI400
aI600
aI800
aI1000
aI1200
aI1400
aI1600
aI1800
aI2000
aa(lp62
F1.0
aF1.0
aF1.0
aF0.99875
aF0.995
aF0.9883333333333333
aF0.97
aF0.9275
aF0.85
aF0.727
aa(lp63
I0
aI0
aI0
aI0
aI0
aI0
aI0
aI0
aI0
aI0
aaa(lp64
I150
aF0.07
aI9
aI2
aI1
aI0
ag2
(g6
S'{\x14\xaeG\xe1z#@'
p65
tp66
Rp67
aF0.19753086419753085
a(lp68
I200
aI400
aI600
aI800
aI1000
aI1200
aI1400
aI1600
aI1800
aI2000
aa(lp69
F1.0
aF1.0
aF1.0
aF1.0
aF1.0
aF0.9958333333333333
aF0.9735714285714285
aF0.9175
aF0.8388888888888889
aF0.7305
aa(lp70
I0
aI0
aI0
aI0
aI0
aI0
aI0
aI0
aI0
aI0
aaa(lp71
I150
aF0.07
aI10
aI2
aI1
aI0
ag2
(g6
S'q=\n\xd7\xa3p#@'
p72
tp73
Rp74
aF0.17777777777777778
a(lp75
I200
aI400
aI600
aI800
aI1000
aI1200
aI1400
aI1600
aI1800
aI2000
aa(lp76
F1.0
aF1.0
aF1.0
aF0.99875
aF0.998
aF0.99
aF0.9721428571428572
aF0.933125
aF0.8533333333333334
aF0.729
aa(lp77
I0
aI0
aI0
aI0
aI0
aI0
aI0
aI0
aI0
aI0
aaa.