(lp0
(lp1
I100
aF0.03
aI1
aI0
acnumpy.core.multiarray
scalar
p2
(cnumpy
dtype
p3
(S'f8'
p4
I0
I1
tp5
Rp6
(I3
S'<'
p7
NNNI-1
I-1
I0
tp8
bS'=\n\xd7\xa3p=\x10@'
p9
tp10
Rp11
a(lp12
I100
aI200
aI300
aI400
aI500
aI600
aa(lp13
F1.0
aF0.995
aF0.9766666666666667
aF0.9325
aF0.836
aF0.6766666666666666
aaa(lp14
I100
aF0.05
aI1
aI0
ag2
(g6
S'\x1f\x85\xebQ\xb8\x1e\r@'
p15
tp16
Rp17
a(lp18
I100
aI200
aI300
aI400
aI500
aa(lp19
F1.0
aF1.0
aF0.9933333333333333
aF0.9375
aF0.728
aaa(lp20
I100
aF0.07
aI1
aI0
ag2
(g6
S'\n\xd7\xa3p=\n\x03@'
p21
tp22
Rp23
a(lp24
I100
aI200
aI300
aI400
aa(lp25
F1.0
aF1.0
aF0.9766666666666667
aF0.595
aaa(lp26
I100
aF0.1
aI1
aI0
ag2
(g6
S'\xa4p=\n\xd7\xa3\xe0?'
p27
tp28
Rp29
a(lp30
I100
aI200
aI300
aa(lp31
F1.0
aF0.96
aF0.17333333333333334
aaa(lp32
I100
aF0.15
aI1
aI0
aI0
a(lp33
I100
aI200
aa(lp34
F1.0
aF0.03
aaa(lp35
I100
aF0.2
aI1
aI0
aI0
a(lp36
I100
aI200
aa(lp37
F0.52
aF0.005
aaa(lp38
I100
aF0.25
aI1
aI0
aI0
a(lp39
I100
aa(lp40
F0.01
aaa(lp41
I100
aF0.3
aI1
aI0
aI0
a(lp42
I100
aa(lp43
F0.01
aaa.