(lp0
(lp1
I100
aF0.07
aI43
aI3
aI1
aI0
acnumpy.core.multiarray
scalar
p2
(cnumpy
dtype
p3
(S'f8'
p4
I0
I1
tp5
Rp6
(I3
S'<'
p7
NNNI-1
I-1
I0
tp8
bS'\xcd\xcc\xcc\xcc\xcclZ@'
p9
tp10
Rp11
aF0.7325581395348837
a(lp12
I14000
aI15000
aa(lp13
F0.7677142857142857
aF0.7046666666666667
aa(lp14
I0
aI0
aaa(lp15
I100
aF0.07
aI48
aI3
aI1
aI0
ag2
(g6
S'\x1f\x85\xebQ\xb8\x1eZ@'
p16
tp17
Rp18
aF0.65625
a(lp19
I14000
aI15000
aa(lp20
F0.7632857142857142
aF0.6965333333333333
aa(lp21
I0
aI0
aaa.