(lp0
(lp1
I100
aF0.07
aI21
aI3
aI1
aI0
acnumpy.core.multiarray
scalar
p2
(cnumpy
dtype
p3
(S'f8'
p4
I0
I1
tp5
Rp6
(I3
S'<'
p7
NNNI-1
I-1
I0
tp8
bS'q=\n\xd7\xa3PU@'
p9
tp10
Rp11
aF0.9653142857142857
a(lp12
I10000
aI10500
aa(lp13
F0.8547
aF0.812
aa(lp14
I3471
aI5928
aaa(lp15
I100
aF0.07
aI23
aI3
aI1
aI0
ag2
(g6
S'\xd7\xa3p=\n\xe7V@'
p16
tp17
Rp18
aF0.955095652173913
a(lp19
I10000
aI10500
aI11000
aa(lp20
F0.9196
aF0.8770476190476191
aF0.8328181818181818
aa(lp21
I726
aI1891
aI3776
aaa(lp22
I100
aF0.07
aI25
aI3
aI1
aI0
ag2
(g6
S'q=\n\xd7\xa3PX@'
p23
tp24
Rp25
aF0.9399
a(lp26
I10000
aI10500
aI11000
aI11500
aa(lp27
F0.9472
aF0.9246666666666666
aF0.8895454545454545
aF0.8457391304347827
aa(lp28
I48
aI261
aI891
aI2175
aaa(lp29
I100
aF0.07
aI27
aI3
aI1
aI0
ag2
(g6
S'\xf6(\\\x8f\xc2UY@'
p30
tp31
Rp32
aF0.9214333333333333
a(lp33
I10000
aI10500
aI11000
aI11500
aI12000
aa(lp34
F0.9441
aF0.9273333333333333
aF0.9088181818181819
aF0.8813043478260869
aF0.8445
aa(lp35
I2
aI18
aI88
aI364
aI1071
aaa(lp36
I100
aF0.07
aI29
aI3
aI1
aI0
ag2
(g6
S'R\xb8\x1e\x85\xeb\xf1Y@'
p37
tp38
Rp39
aF0.9282206896551725
a(lp40
I10000
aI10500
aI11000
aI11500
aI12000
aI12500
aI13000
aa(lp41
F0.9463
aF0.9315238095238095
aF0.9153636363636364
aF0.8953913043478261
aF0.8690833333333333
aF0.83768
aF0.7983076923076923
aa(lp42
I0
aI1
aI4
aI30
aI131
aI453
aI1272
aaa.