(lp0
(lp1
I200
aF0.07
aI1
aI2
aI1
aI0
acnumpy.core.multiarray
scalar
p2
(cnumpy
dtype
p3
(S'f8'
p4
I0
I1
tp5
Rp6
(I3
S'<'
p7
NNNI-1
I-1
I0
tp8
bS'R\xb8\x1e\x85\xeb\xd1\x17@'
p9
tp10
Rp11
aF0.9371
a(lp12
I200
aI400
aI600
aI800
aI1000
aI1200
aI1400
aI1600
aa(lp13
F1.0
aF1.0
aF1.0
aF1.0
aF1.0
aF0.9625
aF0.8578571428571429
aF0.744375
aa(lp14
I0
aI0
aI0
aI7
aI85
aI535
aI1714
aI3658
aaa(lp15
I200
aF0.07
aI2
aI2
aI1
aI0
ag2
(g6
S'\x14\xaeG\xe1z\x14!@'
p16
tp17
Rp18
aF0.76825
a(lp19
I200
aI400
aI600
aI800
aI1000
aI1200
aI1400
aI1600
aI1800
aI2000
aI2200
aa(lp20
F1.0
aF1.0
aF1.0
aF1.0
aF1.0
aF1.0
aF0.9985714285714286
aF0.989375
aF0.9638888888888889
aF0.9
aF0.7763636363636364
aa(lp21
I0
aI0
aI0
aI0
aI0
aI0
aI0
aI0
aI0
aI9
aI70
aaa(lp22
I200
aF0.07
aI3
aI2
aI1
aI0
ag2
(g6
S'=\n\xd7\xa3p\xfd!@'
p23
tp24
Rp25
aF0.5133333333333333
a(lp26
I200
aI400
aI600
aI800
aI1000
aI1200
aI1400
aI1600
aI1800
aI2000
aI2200
aa(lp27
F1.0
aF1.0
aF1.0
aF1.0
aF1.0
aF1.0
aF0.9957142857142857
aF0.988125
aF0.9683333333333334
aF0.9155
aF0.8177272727272727
aa(lp28
I0
aI0
aI0
aI0
aI0
aI0
aI0
aI0
aI0
aI0
aI0
aaa(lp29
I200
aF0.07
aI4
aI2
aI1
aI0
ag2
(g6
S'=\n\xd7\xa3p\xfd!@'
p30
tp31
Rp32
aF0.385
a(lp33
I200
aI400
aI600
aI800
aI1000
aI1200
aI1400
aI1600
aI1800
aI2000
aI2200
aa(lp34
F1.0
aF1.0
aF1.0
aF1.0
aF0.999
aF0.9991666666666666
aF0.9985714285714286
aF0.9875
aF0.9616666666666667
aF0.916
aF0.8177272727272727
aa(lp35
I0
aI0
aI0
aI0
aI0
aI0
aI0
aI0
aI0
aI0
aI0
aaa(lp36
I200
aF0.07
aI5
aI2
aI1
aI0
ag2
(g6
S'\xc3\xf5(\\\x8f\x02!@'
p37
tp38
Rp39
aF0.336
a(lp40
I200
aI400
aI600
aI800
aI1000
aI1200
aI1400
aI1600
aI1800
aI2000
aI2200
aI2400
aa(lp41
F1.0
aF1.0
aF1.0
aF1.0
aF1.0
aF1.0
aF0.9978571428571429
aF0.98875
aF0.9716666666666667
aF0.922
aF0.8454545454545455
aF0.70875
aa(lp42
I0
aI0
aI0
aI0
aI0
aI0
aI0
aI0
aI0
aI0
aI0
aI0
aaa(lp43
I200
aF0.07
aI6
aI2
aI1
aI0
ag2
(g6
S']\x8f\xc2\xf5(\x1c"@'
p44
tp45
Rp46
aF0.25666666666666665
a(lp47
I200
aI400
aI600
aI800
aI1000
aI1200
aI1400
aI1600
aI1800
aI2000
aI2200
aa(lp48
F1.0
aF1.0
aF1.0
aF1.0
aF1.0
aF0.9991666666666666
aF0.9964285714285714
aF0.98875
aF0.96
aF0.916
aF0.8231818181818182
aa(lp49
I0
aI0
aI0
aI0
aI0
aI0
aI0
aI0
aI0
aI0
aI0
aaa(lp50
I200
aF0.07
aI7
aI2
aI1
aI0
ag2
(g6
S'=\n\xd7\xa3p="@'
p51
tp52
Rp53
aF0.22
a(lp54
I200
aI400
aI600
aI800
aI1000
aI1200
aI1400
aI1600
aI1800
aI2000
aI2200
aa(lp55
F1.0
aF1.0
aF1.0
aF1.0
aF1.0
aF1.0
aF0.9985714285714286
aF0.99
aF0.9661111111111111
aF0.916
aF0.8290909090909091
aa(lp56
I0
aI0
aI0
aI0
aI0
aI0
aI0
aI0
aI0
aI0
aI0
aaa(lp57
I200
aF0.07
aI8
aI2
aI1
aI0
ag2
(g6
S'\xe1z\x14\xaeGa"@'
p58
tp59
Rp60
aF0.1925
a(lp61
I200
aI400
aI600
aI800
aI1000
aI1200
aI1400
aI1600
aI1800
aI2000
aI2200
aa(lp62
F1.0
aF1.0
aF1.0
aF1.0
aF1.0
aF1.0
aF0.9964285714285714
aF0.990625
aF0.97
aF0.9255
aF0.8354545454545454
aa(lp63
I0
aI0
aI0
aI0
aI0
aI0
aI0
aI0
aI0
aI0
aI0
aaa(lp64
I200
aF0.07
aI9
aI2
aI1
aI0
ag2
(g6
S'\xc3\xf5(\\\x8fB"@'
p65
tp66
Rp67
aF0.1711111111111111
a(lp68
I200
aI400
aI600
aI800
aI1000
aI1200
aI1400
aI1600
aI1800
aI2000
aI2200
aa(lp69
F1.0
aF1.0
aF1.0
aF1.0
aF1.0
aF0.9991666666666666
aF0.9957142857142857
aF0.98625
aF0.97
aF0.924
aF0.83
aa(lp70
I0
aI0
aI0
aI0
aI0
aI0
aI0
aI0
aI0
aI0
aI0
aaa(lp71
I200
aF0.07
aI10
aI2
aI1
aI0
ag2
(g6
S'q=\n\xd7\xa30"@'
p72
tp73
Rp74
aF0.154
a(lp75
I200
aI400
aI600
aI800
aI1000
aI1200
aI1400
aI1600
aI1800
aI2000
aI2200
aa(lp76
F1.0
aF1.0
aF1.0
aF1.0
aF1.0
aF0.9991666666666666
aF0.9985714285714286
aF0.991875
aF0.97
aF0.9255
aF0.8268181818181818
aa(lp77
I0
aI0
aI0
aI0
aI0
aI0
aI0
aI0
aI0
aI0
aI0
aaa.