(lp0
(lp1
I100
aF0.07
aI91
aI4
aI1
aI0
acnumpy.core.multiarray
scalar
p2
(cnumpy
dtype
p3
(S'f8'
p4
I0
I1
tp5
Rp6
(I3
S'<'
p7
NNNI-1
I-1
I0
tp8
bS'\xafG\xe1z\x14\x1es@'
p9
tp10
Rp11
aF0.9774065934065934
a(lp12
I31000
aI32000
aI33000
aI34000
aa(lp13
F0.9807096774193549
aF0.95484375
aF0.9267575757575758
aF0.8996470588235295
aa(lp14
I2038
aI5313
aI10035
aI15640
aaa(lp15
I100
aF0.07
aI96
aI4
aI1
aI0
ag2
(g6
S'\x8f\xc2\xf5(\\7t@'
p16
tp17
Rp18
aF0.9787708333333334
a(lp19
I31000
aI32000
aI33000
aI34000
aI35000
aI36000
aa(lp20
F0.9985161290322581
aF0.99271875
aF0.976
aF0.9505588235294118
aF0.9240857142857143
aF0.8985
aa(lp21
I153
aI857
aI2816
aI6470
aI11381
aI17095
aaa.