(lp0
(lp1
I100
aF0.07
aI1
aI3
aI1
aI0
acnumpy.core.multiarray
scalar
p2
(cnumpy
dtype
p3
(S'f8'
p4
I0
I1
tp5
Rp6
(I3
S'<'
p7
NNNI-1
I-1
I0
tp8
bS'\\\x8f\xc2\xf5(\\\x05@'
p9
tp10
Rp11
aF0.7854
a(lp12
I200
aI400
aI600
aa(lp13
F0.985
aF0.6775
aF0.445
aa(lp14
I29
aI548
aI1582
aaa(lp15
I100
aF0.07
aI2
aI3
aI1
aI0
ag2
(g6
S'\xecQ\xb8\x1e\x85\xeb\x19@'
p16
tp17
Rp18
aF0.8772
a(lp19
I200
aI400
aI600
aI800
aI1000
aI1200
aa(lp20
F1.0
aF0.9975
aF0.9333333333333333
aF0.7825
aF0.646
aF0.54
aa(lp21
I0
aI5
aI107
aI542
aI1424
aI2552
aaa(lp22
I100
aF0.07
aI3
aI3
aI1
aI0
ag2
(g6
S'H\xe1z\x14\xaeG&@'
p23
tp24
Rp25
aF0.8896
a(lp26
I200
aI400
aI600
aI800
aI1000
aI1200
aI1400
aI1600
aa(lp27
F1.0
aF1.0
aF1.0
aF0.99875
aF0.966
aF0.8916666666666667
aF0.79
aF0.69625
aa(lp28
I0
aI0
aI1
aI6
aI137
aI525
aI1272
aI2304
aaa(lp29
I100
aF0.07
aI4
aI3
aI1
aI0
ag2
(g6
S'=\n\xd7\xa3p\xbd/@'
p30
tp31
Rp32
aF0.9285
a(lp33
I200
aI400
aI600
aI800
aI1000
aI1200
aI1400
aI1600
aI1800
aI2000
aI2200
aI2400
aa(lp34
F1.0
aF1.0
aF1.0
aF1.0
aF1.0
aF0.9941666666666666
aF0.9842857142857143
aF0.939375
aF0.8677777777777778
aF0.787
aF0.7204545454545455
aF0.66125
aa(lp35
I0
aI0
aI0
aI0
aI3
aI27
aI135
aI495
aI1134
aI2087
aI3205
aI4420
aaa(lp36
I100
aF0.07
aI5
aI3
aI1
aI0
ag2
(g6
S'\xc3\xf5(\\\x8f\x824@'
p37
tp38
Rp39
aF0.9318
a(lp40
I200
aI400
aI600
aI800
aI1000
aI1200
aI1400
aI1600
aI1800
aI2000
aI2200
aI2400
aI2600
aI2800
aa(lp41
F1.0
aF1.0
aF1.0
aF1.0
aF1.0
aF1.0
aF0.9992857142857143
aF0.99625
aF0.9855555555555555
aF0.9585
aF0.9095454545454545
aF0.85
aF0.7892307692307692
aF0.7325
aa(lp42
I0
aI0
aI0
aI0
aI0
aI0
aI7
aI38
aI151
aI478
aI1065
aI1889
aI2904
aI4070
aaa(lp43
I100
aF0.07
aI6
aI3
aI1
aI0
ag2
(g6
S'H\xe1z\x14\xae\x079@'
p44
tp45
Rp46
aF0.9349
a(lp47
I200
aI400
aI600
aI800
aI1000
aI1200
aI1400
aI1600
aI1800
aI2000
aI2200
aI2400
aI2600
aI2800
aI3000
aI3200
aa(lp48
F1.0
aF1.0
aF1.0
aF1.0
aF1.0
aF1.0
aF1.0
aF1.0
aF1.0
aF0.999
aF0.9936363636363637
aF0.9770833333333333
aF0.9438461538461539
aF0.8892857142857142
aF0.8336666666666667
aF0.7821875
aa(lp49
I0
aI0
aI0
aI0
aI0
aI0
aI0
aI0
aI3
aI25
aI121
aI402
aI900
aI1679
aI2627
aI3702
aaa(lp50
I100
aF0.07
aI7
aI3
aI1
aI0
ag2
(g6
S')\\\x8f\xc2\xf5h=@'
p51
tp52
Rp53
aF0.9320571428571428
a(lp54
I200
aI400
aI600
aI800
aI1000
aI1200
aI1400
aI1600
aI1800
aI2000
aI2200
aI2400
aI2600
aI2800
aI3000
aI3200
aI3400
aI3600
aa(lp55
F1.0
aF1.0
aF1.0
aF1.0
aF1.0
aF1.0
aF1.0
aF1.0
aF1.0
aF1.0
aF1.0
aF0.9991666666666666
aF0.9973076923076923
aF0.9835714285714285
aF0.9556666666666667
aF0.913125
aF0.8641176470588235
aF0.8169444444444445
aa(lp56
I0
aI0
aI0
aI0
aI0
aI0
aI0
aI0
aI0
aI0
aI7
aI34
aI138
aI378
aI820
aI1510
aI2395
aI3452
aaa(lp57
I100
aF0.07
aI8
aI3
aI1
aI0
ag2
(g6
S'\xcd\xcc\xcc\xcc\xcc\xec@@'
p58
tp59
Rp60
aF0.93225
a(lp61
I200
aI400
aI600
aI800
aI1000
aI1200
aI1400
aI1600
aI1800
aI2000
aI2200
aI2400
aI2600
aI2800
aI3000
aI3200
aI3400
aI3600
aI3800
aI4000
aa(lp62
F1.0
aF1.0
aF1.0
aF1.0
aF1.0
aF1.0
aF1.0
aF1.0
aF1.0
aF1.0
aF1.0
aF1.0
aF0.9996153846153846
aF0.9989285714285714
aF0.9963333333333333
aF0.989375
aF0.9670588235294117
aF0.9325
aF0.8902631578947369
aF0.84625
aa(lp63
I0
aI0
aI0
aI0
aI0
aI0
aI0
aI0
aI0
aI0
aI1
aI4
aI13
aI41
aI136
aI352
aI756
aI1352
aI2167
aI3140
aaa(lp64
I100
aF0.07
aI9
aI3
aI1
aI0
ag2
(g6
S'\xaeG\xe1z\x14.C@'
p65
tp66
Rp67
aF0.9432
a(lp68
I200
aI400
aI600
aI800
aI1000
aI1200
aI1400
aI1600
aI1800
aI2000
aI2200
aI2400
aI2600
aI2800
aI3000
aI3200
aI3400
aI3600
aI3800
aI4000
aI4200
aI4400
aI4600
aa(lp69
F1.0
aF1.0
aF1.0
aF1.0
aF1.0
aF1.0
aF1.0
aF1.0
aF1.0
aF1.0
aF1.0
aF1.0
aF1.0
aF1.0
aF1.0
aF0.999375
aF0.9985294117647059
aF0.9922222222222222
aF0.9763157894736842
aF0.9455
aF0.91
aF0.8718181818181818
aF0.8339130434782609
aa(lp70
I0
aI0
aI0
aI0
aI0
aI0
aI0
aI0
aI0
aI0
aI0
aI0
aI0
aI4
aI12
aI34
aI117
aI293
aI631
aI1190
aI1921
aI2835
aI3904
aaa(lp71
I100
aF0.07
aI10
aI3
aI1
aI0
ag2
(g6
S'33333SE@'
p72
tp73
Rp74
aF0.94221
a(lp75
I200
aI400
aI600
aI800
aI1000
aI1200
aI1400
aI1600
aI1800
aI2000
aI2200
aI2400
aI2600
aI2800
aI3000
aI3200
aI3400
aI3600
aI3800
aI4000
aI4200
aI4400
aI4600
aI4800
aI5000
aa(lp76
F1.0
aF1.0
aF1.0
aF1.0
aF1.0
aF1.0
aF1.0
aF1.0
aF1.0
aF1.0
aF1.0
aF1.0
aF1.0
aF1.0
aF1.0
aF1.0
aF1.0
aF0.9997222222222222
aF0.9986842105263158
aF0.99525
aF0.9826190476190476
aF0.9579545454545455
aF0.9245652173913044
aF0.8883333333333333
aF0.853
aa(lp77
I0
aI0
aI0
aI0
aI0
aI0
aI0
aI0
aI0
aI0
aI0
aI0
aI0
aI0
aI0
aI3
aI8
aI32
aI99
aI245
aI539
aI1027
aI1732
aI2601
aI3593
aaa.