(lp0
(lp1
I100
aF0.07
aI17
aI3
aI1
aI0
acnumpy.core.multiarray
scalar
p2
(cnumpy
dtype
p3
(S'f8'
p4
I0
I1
tp5
Rp6
(I3
S'<'
p7
NNNI-1
I-1
I0
tp8
bS'\x1e\x85\xebQ\xb8\xeeQ@'
p9
tp10
Rp11
aF0.9606176470588236
a(lp12
I8000
aI8500
aa(lp13
F0.897375
aF0.8438823529411764
aa(lp14
I2620
aI5065
aaa(lp15
I100
aF0.07
aI18
aI3
aI1
aI0
ag2
(g6
S'\xd7\xa3p=\n\xd7R@'
p16
tp17
Rp18
aF0.9620166666666666
a(lp19
I8000
aI8500
aI9000
aa(lp20
F0.94175
aF0.8888235294117647
aF0.8373333333333334
aa(lp21
I1116
aI2785
aI5279
aaa(lp22
I100
aF0.07
aI19
aI3
aI1
aI0
ag2
(g6
S'\x14\xaeG\xe1z\xc4S@'
p23
tp24
Rp25
aF0.9475736842105263
a(lp26
I8000
aI8500
aI9000
aa(lp27
F0.96925
aF0.930235294117647
aF0.8785555555555555
aa(lp28
I336
aI1247
aI2987
aaa(lp29
I100
aF0.07
aI20
aI3
aI1
aI0
ag2
(g6
S'\x9a\x99\x99\x99\x99\xb9T@'
p30
tp31
Rp32
aF0.949815
a(lp33
I8000
aI8500
aI9000
aI9500
aa(lp34
F0.980375
aF0.9594117647058824
aF0.9204444444444444
aF0.8726315789473684
aa(lp35
I63
aI381
aI1339
aI3179
aaa(lp36
I100
aF0.07
aI21
aI3
aI1
aI0
ag2
(g6
S'\x8f\xc2\xf5(\\\x7fU@'
p37
tp38
Rp39
aF0.9517
a(lp40
I8000
aI8500
aI9000
aI9500
aI10000
aa(lp41
F0.982875
aF0.9718823529411764
aF0.9483333333333334
aF0.9065263157894737
aF0.8599
aa(lp42
I13
aI91
aI459
aI1496
aI3381
aaa(lp43
I100
aF0.07
aI22
aI3
aI1
aI0
ag2
(g6
S'\x14\xaeG\xe1zdV@'
p44
tp45
Rp46
aF0.9314181818181818
a(lp47
I8000
aI8500
aI9000
aI9500
aI10000
aa(lp48
F0.98125
aF0.9745882352941176
aF0.9605555555555556
aF0.9375789473684211
aF0.8957
aa(lp49
I7
aI26
aI147
aI564
aI1696
aaa(lp50
I100
aF0.07
aI23
aI3
aI1
aI0
ag2
(g6
S'\x85\xebQ\xb8\x1e\x05W@'
p51
tp52
Rp53
aF0.9044608695652174
a(lp54
I8000
aI8500
aI9000
aI9500
aI10000
aa(lp55
F0.9835
aF0.9762352941176471
aF0.9663333333333334
aF0.9505263157894737
aF0.9208
aa(lp56
I0
aI2
aI36
aI172
aI658
aaa(lp57
I100
aF0.07
aI24
aI3
aI1
aI0
ag2
(g6
S')\\\x8f\xc2\xf5xW@'
p58
tp59
Rp60
aF0.8726625
a(lp61
I8000
aI8500
aI9000
aI9500
aI10000
aa(lp62
F0.98375
aF0.9763529411764705
aF0.9686666666666667
aF0.9548421052631579
aF0.9389
aa(lp63
I0
aI0
aI4
aI34
aI187
aaa(lp64
I100
aF0.07
aI25
aI3
aI1
aI0
ag2
(g6
S'\\\x8f\xc2\xf5(\x8cW@'
p65
tp66
Rp67
aF0.839256
a(lp68
I8000
aI8500
aI9000
aI9500
aI10000
aa(lp69
F0.981
aF0.9732941176470589
aF0.9651111111111111
aF0.956
aF0.9419
aa(lp70
I0
aI0
aI1
aI13
aI62
aaa(lp71
I100
aF0.07
aI26
aI3
aI1
aI0
ag2
(g6
S'q=\n\xd7\xa3\xb0W@'
p72
tp73
Rp74
aF0.8075653846153846
a(lp75
I8000
aI8500
aI9000
aI9500
aI10000
aa(lp76
F0.9835
aF0.9772941176470589
aF0.9702222222222222
aF0.9606315789473684
aF0.9476
aa(lp77
I0
aI0
aI0
aI3
aI11
aaa.