(lp0
(lp1
I100
aF0.03
aI1
aI2
aI1
aI0
acnumpy.core.multiarray
scalar
p2
(cnumpy
dtype
p3
(S'f8'
p4
I0
I1
tp5
Rp6
(I3
S'<'
p7
NNNI-1
I-1
I0
tp8
bS'ffffff\x18@'
p9
tp10
Rp11
aF0.5618
a(lp12
I100
aI200
aI300
aI400
aI500
aI600
aI700
aI800
aI900
aI1000
aI1100
aI1200
aI1300
aa(lp13
F0.99
aF0.985
aF0.94
aF0.875
aF0.836
aF0.78
aF0.7371428571428571
aF0.68875
aF0.6311111111111111
aF0.583
aF0.5418181818181819
aF0.5058333333333334
aF0.46923076923076923
aa(lp14
I1
aI5
aI24
aI60
aI104
aI168
aI250
aI337
aI455
aI595
aI754
aI913
aI1091
aaa(lp15
I100
aF0.03
aI1
aI3
aI1
aI0
ag2
(g6
S'333333\xfb?'
p16
tp17
Rp18
aF0.3024
a(lp19
I100
aI200
aI300
aI400
aI500
aI600
aa(lp20
F0.7
aF0.57
aF0.46
aF0.3825
aF0.326
aF0.2833333333333333
aa(lp21
I37
aI113
aI240
aI414
aI594
aI792
aaa(lp22
I100
aF0.03
aI5
aI2
aI1
aI0
ag2
(g6
S'\xc3\xf5(\\\x8f\xc20@'
p23
tp24
Rp25
aF0.336
a(lp26
I100
aI200
aI300
aI400
aI500
aI600
aI700
aI800
aI900
aI1000
aI1100
aI1200
aI1300
aI1400
aI1500
aI1600
aI1700
aI1800
aI1900
aI2000
aI2100
aI2200
aI2300
aI2400
aI2500
aI2600
aI2700
aI2800
aa(lp27
F1.0
aF0.995
aF0.9966666666666667
aF0.9875
aF0.984
aF0.9716666666666667
aF0.9671428571428572
aF0.95625
aF0.9511111111111111
aF0.935
aF0.9136363636363637
aF0.9016666666666666
aF0.8892307692307693
aF0.8707142857142857
aF0.8533333333333334
aF0.8275
aF0.7994117647058824
aF0.785
aF0.7736842105263158
aF0.7465
aF0.7261904761904762
aF0.7086363636363636
aF0.6895652173913044
aF0.6745833333333333
aF0.654
aF0.6342307692307693
aF0.6177777777777778
aF0.5985714285714285
aa(lp28
I0
aI0
aI0
aI0
aI0
aI0
aI0
aI0
aI0
aI0
aI0
aI0
aI0
aI0
aI0
aI0
aI0
aI0
aI0
aI0
aI0
aI0
aI0
aI0
aI0
aI0
aI0
aI0
aaa(lp29
I100
aF0.03
aI5
aI3
aI1
aI0
ag2
(g6
S'H\xe1z\x14\xae\xc79@'
p30
tp31
Rp32
aF0.58698
a(lp33
I100
aI200
aI300
aI400
aI500
aI600
aI700
aI800
aI900
aI1000
aI1100
aI1200
aI1300
aI1400
aI1500
aI1600
aI1700
aI1800
aI1900
aI2000
aI2100
aI2200
aI2300
aI2400
aI2500
aI2600
aI2700
aI2800
aI2900
aI3000
aI3100
aI3200
aI3300
aI3400
aI3500
aI3600
aI3700
aI3800
aa(lp34
F1.0
aF1.0
aF1.0
aF0.9975
aF0.996
aF0.9916666666666667
aF0.9914285714285714
aF0.99
aF0.99
aF0.989
aF0.9872727272727273
aF0.9875
aF0.9846153846153847
aF0.9792857142857143
aF0.976
aF0.970625
aF0.9658823529411765
aF0.9594444444444444
aF0.9494736842105264
aF0.9365
aF0.9252380952380952
aF0.9122727272727272
aF0.8965217391304348
aF0.8866666666666667
aF0.8748
aF0.8607692307692307
aF0.8462962962962963
aF0.8303571428571429
aF0.8124137931034483
aF0.798
aF0.7812903225806451
aF0.7665625
aF0.75
aF0.7352941176470589
aF0.7222857142857143
aF0.7086111111111111
aF0.6945945945945946
aF0.6784210526315789
aa(lp35
I0
aI0
aI0
aI0
aI0
aI0
aI2
aI2
aI3
aI5
aI6
aI7
aI10
aI19
aI25
aI32
aI41
aI57
aI80
aI109
aI143
aI179
aI234
aI266
aI316
aI370
aI440
aI506
aI597
aI679
aI771
aI874
aI987
aI1099
aI1204
aI1335
aI1463
aI1617
aaa(lp36
I100
aF0.05
aI1
aI2
aI1
aI0
ag2
(g6
S'333333\x19@'
p37
tp38
Rp39
aF0.7666
a(lp40
I100
aI200
aI300
aI400
aI500
aI600
aI700
aI800
aI900
aI1000
aa(lp41
F1.0
aF0.995
aF0.9966666666666667
aF0.985
aF0.956
aF0.9116666666666666
aF0.8442857142857143
aF0.76875
aF0.6988888888888889
aF0.63
aa(lp42
I0
aI2
aI12
aI39
aI101
aI211
aI376
aI585
aI856
aI1167
aaa(lp43
I100
aF0.05
aI1
aI3
aI1
aI0
ag2
(g6
S'\xc3\xf5(\\\x8f\xc2\x07@'
p44
tp45
Rp46
aF0.6153
a(lp47
I100
aI200
aI300
aI400
aI500
aI600
aa(lp48
F0.99
aF0.955
aF0.84
aF0.7025
aF0.592
aF0.495
aa(lp49
I7
aI54
aI171
aI376
aI624
aI949
aaa(lp50
I100
aF0.05
aI5
aI2
aI1
aI0
ag2
(g6
S'\x9a\x99\x99\x99\x99\x99*@'
p51
tp52
Rp53
aF0.36
a(lp54
I100
aI200
aI300
aI400
aI500
aI600
aI700
aI800
aI900
aI1000
aI1100
aI1200
aI1300
aI1400
aI1500
aI1600
aI1700
aI1800
aa(lp55
F1.0
aF1.0
aF1.0
aF1.0
aF1.0
aF0.9966666666666667
aF0.9957142857142857
aF0.9825
aF0.9777777777777777
aF0.967
aF0.9472727272727273
aF0.9325
aF0.9069230769230769
aF0.8814285714285715
aF0.8546666666666667
aF0.813125
aF0.7788235294117647
aF0.7388888888888889
aa(lp56
I0
aI0
aI0
aI0
aI0
aI0
aI0
aI0
aI0
aI0
aI0
aI0
aI0
aI0
aI0
aI0
aI0
aI0
aaa(lp57
I100
aF0.05
aI5
aI3
aI1
aI0
ag2
(g6
S'\x1f\x85\xebQ\xb8\x9e7@'
p58
tp59
Rp60
aF0.8088
a(lp61
I100
aI200
aI300
aI400
aI500
aI600
aI700
aI800
aI900
aI1000
aI1100
aI1200
aI1300
aI1400
aI1500
aI1600
aI1700
aI1800
aI1900
aI2000
aI2100
aI2200
aI2300
aI2400
aI2500
aI2600
aI2700
aI2800
aI2900
aI3000
aa(lp62
F1.0
aF1.0
aF1.0
aF1.0
aF1.0
aF1.0
aF1.0
aF1.0
aF1.0
aF1.0
aF0.9990909090909091
aF0.9991666666666666
aF0.9992307692307693
aF0.9992857142857143
aF0.9986666666666667
aF0.99625
aF0.9952941176470588
aF0.99
aF0.9842105263157894
aF0.9765
aF0.9657142857142857
aF0.9531818181818181
aF0.9373913043478261
aF0.9229166666666667
aF0.9
aF0.8807692307692307
aF0.8577777777777778
aF0.8353571428571429
aF0.8117241379310345
aF0.7873333333333333
aa(lp63
I0
aI0
aI0
aI0
aI0
aI0
aI0
aI0
aI0
aI0
aI1
aI2
aI2
aI4
aI6
aI11
aI15
aI32
aI51
aI81
aI120
aI178
aI261
aI346
aI485
aI627
aI816
aI1022
aI1257
aI1520
aaa(lp64
I100
aF0.07
aI1
aI2
aI1
aI0
ag2
(g6
S'\\\x8f\xc2\xf5(\\\x14@'
p65
tp66
Rp67
aF0.8108
a(lp68
I100
aI200
aI300
aI400
aI500
aI600
aI700
aa(lp69
F1.0
aF1.0
aF1.0
aF0.995
aF0.946
aF0.8333333333333334
aF0.7271428571428571
aa(lp70
I0
aI0
aI8
aI55
aI184
aI434
aI846
aaa(lp71
I100
aF0.07
aI1
aI3
aI1
aI0
ag2
(g6
S'\xaeG\xe1z\x14\xae\x05@'
p72
tp73
Rp74
aF0.675
a(lp75
I100
aI200
aI300
aI400
aa(lp76
F1.0
aF0.995
aF0.8733333333333333
aF0.6775
aa(lp77
I1
aI30
aI198
aI550
aaa(lp78
I100
aF0.07
aI5
aI2
aI1
aI0
ag2
(g6
S'\xd7\xa3p=\nW!@'
p79
tp80
Rp81
aF0.336
a(lp82
I100
aI200
aI300
aI400
aI500
aI600
aI700
aI800
aI900
aI1000
aI1100
aI1200
aa(lp83
F1.0
aF1.0
aF1.0
aF1.0
aF0.998
aF0.99
aF0.9728571428571429
aF0.9575
aF0.9177777777777778
aF0.865
aF0.81
aF0.7225
aa(lp84
I0
aI0
aI0
aI0
aI0
aI0
aI0
aI0
aI0
aI0
aI0
aI0
aaa(lp85
I100
aF0.07
aI5
aI3
aI1
aI0
ag2
(g6
S'\xcd\xcc\xcc\xcc\xcc\x8c4@'
p86
tp87
Rp88
aF0.91014
a(lp89
I100
aI200
aI300
aI400
aI500
aI600
aI700
aI800
aI900
aI1000
aI1100
aI1200
aI1300
aI1400
aI1500
aI1600
aI1700
aI1800
aI1900
aI2000
aI2100
aI2200
aI2300
aI2400
aI2500
aa(lp90
F1.0
aF1.0
aF1.0
aF1.0
aF1.0
aF1.0
aF1.0
aF1.0
aF1.0
aF1.0
aF1.0
aF1.0
aF1.0
aF0.9992857142857143
aF0.996
aF0.995
aF0.9929411764705882
aF0.9911111111111112
aF0.9836842105263158
aF0.969
aF0.9466666666666667
aF0.9190909090909091
aF0.8865217391304347
aF0.8541666666666666
aF0.822
aa(lp91
I0
aI0
aI0
aI0
aI0
aI0
aI0
aI0
aI0
aI0
aI0
aI0
aI1
aI6
aI23
aI39
aI79
aI145
aI266
aI431
aI683
aI1005
aI1401
aI1838
aI2331
aaa(lp92
I100
aF0.1
aI1
aI2
aI1
aI0
ag2
(g6
S'\x9a\x99\x99\x99\x99\x99\r@'
p93
tp94
Rp95
aF0.8668
a(lp96
I100
aI200
aI300
aI400
aI500
aa(lp97
F1.0
aF1.0
aF0.9933333333333333
aF0.905
aF0.74
aa(lp98
I0
aI0
aI24
aI204
aI666
aaa(lp99
I100
aF0.1
aI1
aI3
aI1
aI0
ag2
(g6
S'\xa4p=\n\xd7\xa3\x02@'
p100
tp101
Rp102
aF0.8514
a(lp103
I100
aI200
aI300
aI400
aa(lp104
F1.0
aF0.96
aF0.7466666666666667
aF0.5825
aa(lp105
I1
aI65
aI443
aI1162
aaa(lp106
I100
aF0.1
aI5
aI2
aI1
aI0
ag2
(g6
S'\x9a\x99\x99\x99\x99\x99\x12@'
p107
tp108
Rp109
aF0.28
a(lp110
I100
aI200
aI300
aI400
aI500
aI600
aI700
aa(lp111
F1.0
aF1.0
aF1.0
aF0.9925
aF0.95
aF0.82
aF0.6642857142857143
aa(lp112
I0
aI0
aI0
aI0
aI0
aI0
aI0
aaa(lp113
I100
aF0.1
aI5
aI3
aI1
aI0
ag2
(g6
S'R\xb8\x1e\x85\xeb\xd1.@'
p114
tp115
Rp116
aF0.94614
a(lp117
I100
aI200
aI300
aI400
aI500
aI600
aI700
aI800
aI900
aI1000
aI1100
aI1200
aI1300
aI1400
aI1500
aI1600
aI1700
aI1800
aa(lp118
F1.0
aF1.0
aF1.0
aF1.0
aF1.0
aF1.0
aF1.0
aF1.0
aF1.0
aF1.0
aF1.0
aF1.0
aF1.0
aF0.9985714285714286
aF0.986
aF0.9525
aF0.9052941176470588
aF0.8561111111111112
aa(lp119
I0
aI0
aI0
aI0
aI0
aI0
aI0
aI0
aI0
aI0
aI0
aI4
aI44
aI172
aI442
aI895
aI1482
aI2231
aaa(lp120
I100
aF0.15
aI1
aI2
aI1
aI0
ag2
(g6
S')\\\x8f\xc2\xf5(\xfc?'
p121
tp122
Rp123
aF0.8538
a(lp124
I100
aI200
aI300
aa(lp125
F1.0
aF0.965
aF0.5866666666666667
aa(lp126
I0
aI4
aI231
aaa(lp127
I100
aF0.15
aI1
aI3
aI1
aI0
ag2
(g6
S'\x8f\xc2\xf5(\\\x8f\x00@'
p128
tp129
Rp130
aF0.9552
a(lp131
I100
aI200
aI300
aI400
aa(lp132
F1.0
aF0.955
aF0.6933333333333334
aF0.5175
aa(lp133
I0
aI263
aI1408
aI2816
aaa(lp134
I100
aF0.15
aI5
aI2
aI1
aI0
ag2
(g6
S'\x14\xaeG\xe1z\x14\xee?'
p135
tp136
Rp137
aF0.24
a(lp138
I100
aI200
aI300
aI400
aa(lp139
F1.0
aF0.985
aF0.7233333333333334
aF0.235
aa(lp140
I0
aI0
aI0
aI0
aaa(lp141
I100
aF0.15
aI5
aI3
aI1
aI0
ag2
(g6
S'\x1f\x85\xebQ\xb8\x1e$@'
p142
tp143
Rp144
aF0.97002
a(lp145
I100
aI200
aI300
aI400
aI500
aI600
aI700
aI800
aI900
aI1000
aI1100
aI1200
aa(lp146
F1.0
aF1.0
aF1.0
aF1.0
aF1.0
aF1.0
aF1.0
aF1.0
aF0.9988888888888889
aF0.989
aF0.9163636363636364
aF0.8383333333333334
aa(lp147
I0
aI0
aI0
aI0
aI0
aI0
aI0
aI0
aI12
aI179
aI760
aI1833
aaa(lp148
I100
aF0.2
aI1
aI2
aI1
aI0
ag2
(g6
S'\n\xd7\xa3p=\n\xd7?'
p149
tp150
Rp151
aF0.793
a(lp152
I100
aI200
aa(lp153
F0.96
aF0.18
aa(lp154
I0
aI35
aaa(lp155
I100
aF0.2
aI1
aI3
aI1
aI0
ag2
(g6
S'\x9a\x99\x99\x99\x99\x99\xf9?'
p156
tp157
Rp158
aF0.9681
a(lp159
I100
aI200
aI300
aa(lp160
F1.0
aF0.805
aF0.5333333333333333
aa(lp161
I4
aI867
aI2773
aaa(lp162
I100
aF0.2
aI5
aI2
aI1
aI0
ag2
(g6
S'\xe1z\x14\xaeG\xe1\xe2?'
p163
tp164
Rp165
aF0.16
a(lp166
I100
aI200
aa(lp167
F0.99
aF0.295
aa(lp168
I0
aI0
aaa(lp169
I100
aF0.2
aI5
aI3
aI1
aI0
ag2
(g6
S'\x85\xebQ\xb8\x1e\x85\x16@'
p170
tp171
Rp172
aF0.83946
a(lp173
I100
aI200
aI300
aI400
aI500
aI600
aI700
aa(lp174
F1.0
aF1.0
aF1.0
aF0.9975
aF0.988
aF0.9483333333333334
aF0.8042857142857143
aa(lp175
I0
aI0
aI0
aI0
aI0
aI0
aI9
aaa(lp176
I100
aF0.25
aI1
aI2
aI1
aI0
aI0
aF0.9314
a(lp177
I100
aI200
aa(lp178
F0.51
aF0.005
aa(lp179
I0
aI343
aaa(lp180
I100
aF0.25
aI1
aI3
aI1
aI0
ag2
(g6
S')\\\x8f\xc2\xf5(\xf4?'
p181
tp182
Rp183
aF0.9855
a(lp184
I100
aI200
aI300
aa(lp185
F1.0
aF0.635
aF0.42
aa(lp186
I29
aI1757
aI4215
aaa(lp187
I100
aF0.25
aI5
aI2
aI1
aI0
aI0
aF0.2
a(lp188
I100
aI200
aa(lp189
F0.72
aF0.02
aa(lp190
I0
aI0
aaa(lp191
I100
aF0.25
aI5
aI3
aI1
aI0
ag2
(g6
S'\x00\x00\x00\x00\x00\x00\xfc?'
p192
tp193
Rp194
aF0.6
a(lp195
I100
aI200
aI300
aI400
aa(lp196
F1.0
aF0.99
aF0.91
aF0.4375
aa(lp197
I0
aI0
aI0
aI0
aaa(lp198
I100
aF0.3
aI1
aI2
aI1
aI0
aI0
aF0.6
a(lp199
I100
aa(lp200
F0.03
aa(lp201
I0
aaa(lp202
I100
aF0.3
aI1
aI3
aI1
aI0
ag2
(g6
S'\x00\x00\x00\x00\x00\x00\xf0?'
p203
tp204
Rp205
aF0.9864
a(lp206
I100
aI200
aa(lp207
F0.97
aF0.5
aa(lp208
I138
aI2712
aaa(lp209
I100
aF0.3
aI5
aI2
aI1
aI0
aI0
aF0.24
a(lp210
I100
aI200
aa(lp211
F0.1
aF0.005
aa(lp212
I0
aI0
aaa(lp213
I100
aF0.3
aI5
aI3
aI1
aI0
aI0
aF0.54
a(lp214
I100
aI200
aI300
aa(lp215
F1.0
aF0.675
aF0.056666666666666664
aa(lp216
I0
aI0
aI0
aaa.