(lp0
(lp1
I100
aF0.07
aI1
aI2
aI1
aI0
acnumpy.core.multiarray
scalar
p2
(cnumpy
dtype
p3
(S'f8'
p4
I0
I1
tp5
Rp6
(I3
S'<'
p7
NNNI-1
I-1
I0
tp8
bS'\n\xd7\xa3p=\n\x14@'
p9
tp10
Rp11
aF0.8674
a(lp12
I200
aI400
aI600
aI800
aa(lp13
F1.0
aF0.9925
aF0.8466666666666667
aF0.62625
aa(lp14
I1
aI51
aI438
aI1263
aaa(lp15
I100
aF0.07
aI2
aI2
aI1
aI0
ag2
(g6
S'\xf7(\\\x8f\xc2\xf5\x1f@'
p16
tp17
Rp18
aF0.8021
a(lp19
I200
aI400
aI600
aI800
aI1000
aI1200
aa(lp20
F1.0
aF0.9925
aF0.9866666666666667
aF0.95125
aF0.843
aF0.6658333333333334
aa(lp21
I0
aI0
aI2
aI12
aI90
aI379
aaa(lp22
I100
aF0.07
aI3
aI2
aI1
aI0
ag2
(g6
S'\x9a\x99\x99\x99\x99\x19!@'
p23
tp24
Rp25
aF0.5598666666666666
a(lp26
I200
aI400
aI600
aI800
aI1000
aI1200
aa(lp27
F1.0
aF0.9975
aF0.995
aF0.96125
aF0.871
aF0.7125
aa(lp28
I0
aI0
aI0
aI0
aI0
aI2
aaa(lp29
I100
aF0.07
aI4
aI2
aI1
aI0
ag2
(g6
S'[\x8f\xc2\xf5(\\\x1d@'
p30
tp31
Rp32
aF0.49
a(lp33
I200
aI400
aI600
aI800
aI1000
aI1200
aI1400
aa(lp34
F1.0
aF0.9975
aF0.99
aF0.9575
aF0.854
aF0.7216666666666667
aF0.5242857142857142
aa(lp35
I0
aI0
aI0
aI0
aI0
aI0
aI0
aaa(lp36
I100
aF0.07
aI5
aI2
aI1
aI0
ag2
(g6
S'\x14\xaeG\xe1z\x94!@'
p37
tp38
Rp39
aF0.336
a(lp40
I200
aI400
aI600
aI800
aI1000
aI1200
aa(lp41
F1.0
aF1.0
aF0.9933333333333333
aF0.9675
aF0.888
aF0.7325
aa(lp42
I0
aI0
aI0
aI0
aI0
aI0
aaa(lp43
I100
aF0.07
aI6
aI2
aI1
aI0
ag2
(g6
S'\xd7\xa3p=\nW!@'
p44
tp45
Rp46
aF0.28
a(lp47
I200
aI400
aI600
aI800
aI1000
aI1200
aa(lp48
F1.0
aF0.9975
aF0.9916666666666667
aF0.97125
aF0.869
aF0.7225
aa(lp49
I0
aI0
aI0
aI0
aI0
aI0
aaa(lp50
I100
aF0.07
aI7
aI2
aI1
aI0
ag2
(g6
S'\xaeG\xe1z\x14. @'
p51
tp52
Rp53
aF0.28
a(lp54
I200
aI400
aI600
aI800
aI1000
aI1200
aI1400
aa(lp55
F1.0
aF0.9975
aF0.995
aF0.97375
aF0.893
aF0.7625
aF0.5778571428571428
aa(lp56
I0
aI0
aI0
aI0
aI0
aI0
aI0
aaa(lp57
I100
aF0.07
aI8
aI2
aI1
aI0
ag2
(g6
S'\x8f\xc2\xf5(\\\x8f\x1f@'
p58
tp59
Rp60
aF0.245
a(lp61
I200
aI400
aI600
aI800
aI1000
aI1200
aI1400
aa(lp62
F1.0
aF1.0
aF0.9916666666666667
aF0.9625
aF0.869
aF0.7466666666666667
aF0.5635714285714286
aa(lp63
I0
aI0
aI0
aI0
aI0
aI0
aI0
aaa(lp64
I100
aF0.07
aI9
aI2
aI1
aI0
ag2
(g6
S'\n\xd7\xa3p=\x8a!@'
p65
tp66
Rp67
aF0.18666666666666668
a(lp68
I200
aI400
aI600
aI800
aI1000
aI1200
aa(lp69
F1.0
aF1.0
aF0.9916666666666667
aF0.955
aF0.868
aF0.7308333333333333
aa(lp70
I0
aI0
aI0
aI0
aI0
aI0
aaa(lp71
I100
aF0.07
aI10
aI2
aI1
aI0
ag2
(g6
S'=\n\xd7\xa3p\xbd!@'
p72
tp73
Rp74
aF0.168
a(lp75
I200
aI400
aI600
aI800
aI1000
aI1200
aa(lp76
F1.0
aF0.995
aF0.99
aF0.9525
aF0.886
aF0.7391666666666666
aa(lp77
I0
aI0
aI0
aI0
aI0
aI0
aaa.