(lp0
(lp1
I200
aF0.05
aI20
aI5
aI1
aF0.2
acnumpy.core.multiarray
scalar
p2
(cnumpy
dtype
p3
(S'f8'
p4
I0
I1
tp5
Rp6
(I3
S'<'
p7
NNNI-1
I-1
I0
tp8
bS'H\xe1z\x14\xaewH@'
p9
tp10
Rp11
aF0.926325
a(lp12
I14500
aI15000
aI15500
aa(lp13
F0.6704827586206896
aF0.6586
aF0.6314193548387097
aa(lp14
I2117
aI4022
aI6788
aaa(lp15
I200
aF0.05
aI20
aI5
aI1
aF0.3
ag2
(g6
S'\xc3\xf5(\\\x8fb<@'
p16
tp17
Rp18
aF0.9259
a(lp19
I14500
aI15000
aI15500
aa(lp20
F0.3971724137931035
aF0.3846
aF0.366258064516129
aa(lp21
I2155
aI4075
aI6856
aaa(lp22
I200
aF0.05
aI20
aI5
aI1
aF0.4
ag2
(g6
S'\x00\x00\x00\x00\x00@/@'
p23
tp24
Rp25
aF0.91215625
a(lp26
I14500
aI15000
aa(lp27
F0.21613793103448276
aF0.20833333333333334
aa(lp28
I2152
aI4055
aaa(lp29
I200
aF0.05
aI20
aI5
aI1
aF0.5
ag2
(g6
S'\x1f\x85\xebQ\xb8^!@'
p30
tp31
Rp32
aF0.93721875
a(lp33
I14500
aI15000
aI15500
aI16000
aa(lp34
F0.11675862068965517
aF0.11673333333333333
aF0.11490322580645161
aF0.1085625
aa(lp35
I2124
aI4081
aI6765
aI10045
aaa.