(lp0
(lp1
I100
aF0.05
aI20
aI5
aI1
aF0.1
acnumpy.core.multiarray
scalar
p2
(cnumpy
dtype
p3
(S'f8'
p4
I0
I1
tp5
Rp6
(I3
S'<'
p7
NNNI-1
I-1
I0
tp8
bS'\x9a\x99\x99\x99\x99YI@'
p9
tp10
Rp11
aF0.8522
a(lp12
I9600
aI9800
aa(lp13
F0.5283333333333333
aF0.5173469387755102
aa(lp14
I14055
aI14912
aaa(lp15
I100
aF0.05
aI20
aI5
aI1
aF0.2
ag2
(g6
S'\xce\xcc\xcc\xcc\xcc\xecH@'
p16
tp17
Rp18
aF0.8522
a(lp19
I9600
aI9800
aa(lp20
F0.5198958333333333
aF0.5086734693877552
aa(lp21
I14055
aI14912
aaa(lp22
I100
aF0.05
aI20
aI5
aI1
aF0.3
ag2
(g6
S'S\xb8\x1e\x85\xeb\xf1H@'
p23
tp24
Rp25
aF0.8522
a(lp26
I9600
aI9800
aa(lp27
F0.51875
aF0.5090816326530613
aa(lp28
I14055
aI14912
aaa(lp29
I100
aF0.05
aI20
aI5
aI1
aF0.4
ag2
(g6
S'\xecQ\xb8\x1e\x85k5@'
p30
tp31
Rp32
aF0.858025
a(lp33
I9600
aI9800
aI10000
aI10200
aa(lp34
F0.21760416666666665
aF0.21959183673469387
aF0.2168
aF0.21
aa(lp35
I14055
aI14912
aI15782
aI16679
aaa(lp36
I100
aF0.05
aI20
aI5
aI1
aF0.5
ag2
(g6
S'\xa4p=\n\xd7#5@'
p37
tp38
Rp39
aF0.8522
a(lp40
I9600
aI9800
aa(lp41
F0.225625
aF0.21571428571428572
aa(lp42
I14055
aI14912
aaa.