(lp0
(lp1
I100
aF0.07
aI40
aI3
aI1
aI0
acnumpy.core.multiarray
scalar
p2
(cnumpy
dtype
p3
(S'f8'
p4
I0
I1
tp5
Rp6
(I3
S'<'
p7
NNNI-1
I-1
I0
tp8
bS'\x85\xebQ\xb8\x1e\x05Z@'
p9
tp10
Rp11
aF0.7875
a(lp12
I14000
aI15000
aa(lp13
F0.7648571428571429
aF0.6938666666666666
aa(lp14
I0
aI0
aaa(lp15
I100
aF0.07
aI45
aI3
aI1
aI0
ag2
(g6
S'H\xe1z\x14\xaeGZ@'
p16
tp17
Rp18
aF0.7
a(lp19
I14000
aI15000
aa(lp20
F0.7675
aF0.7008
aa(lp21
I0
aI0
aaa.