(lp0
(lp1
I200
aF0.05
aI10
aI2
aF0.6
aI0
acnumpy.core.multiarray
scalar
p2
(cnumpy
dtype
p3
(S'f8'
p4
I0
I1
tp5
Rp6
(I3
S'<'
p7
NNNI-1
I-1
I0
tp8
bS'fffff&1@'
p9
tp10
Rp11
aF0.224585
a(lp12
I1500
aI1800
aI2100
aI2400
aI2700
aI3000
aI3300
aI3600
aI3900
aI4200
aI4500
aa(lp13
F1.0
aF0.9994444444444445
aF0.9985714285714286
aF0.99625
aF0.9903703703703703
aF0.9816666666666667
aF0.9642424242424242
aF0.9361111111111111
aF0.8917948717948718
aF0.8364285714285714
aF0.7622222222222222
aa(lp14
I29
aI35
aI40
aI47
aI53
aI60
aI65
aI67
aI74
aI78
aI83
aaa.